Certificate:
    Data:
        Version: 3 (0x2)
        Serial Number: 268435667 (0x100000d3)
    Signature Algorithm: sha256WithRSAEncryption
        Issuer: C=DE, ST=Hessen, O=privacyidea, CN=CA001
        Validity
            Not Before: Jan 29 14:34:27 2019 GMT
            Not After : Jan 29 14:34:27 2020 GMT
        Subject: C=DE, ST=Hessen, O=privacyidea, CN=usercert
        Subject Public Key Info:
            Public Key Algorithm: rsaEncryption
                Public-Key: (2048 bit)
                Modulus:
                    00:dc:2f:d1:5f:29:97:d4:7c:c3:53:c8:30:bd:4b:
                    67:70:2c:24:6b:b8:5e:eb:21:7a:48:12:56:7c:81:
                    5c:48:75:b6:68:eb:f6:f2:98:4e:50:51:d1:7f:6c:
                    73:f3:0a:a7:ae:be:48:5e:e5:d6:e1:d9:2a:7c:32:
                    6e:4e:fd:08:f6:5a:54:49:23:73:c3:b9:07:18:d1:
                    ef:b3:ac:f8:8a:dc:94:96:a4:90:3a:8e:74:df:e6:
                    0d:37:1b:bd:5b:b7:25:1a:56:39:da:6f:91:aa:5e:
                    1c:74:f3:f9:7c:14:01:83:12:65:76:c7:bb:fe:36:
                    5b:95:e9:72:65:83:ed:3e:98:30:71:fa:87:dd:a3:
                    36:5a:30:03:2e:26:e0:61:d1:bf:02:3f:b6:06:1f:
                    4a:89:28:1c:5c:a2:ff:4e:be:94:e6:8c:e0:da:82:
                    f1:9d:29:32:48:30:73:b4:04:f6:42:1e:be:f7:e2:
                    32:32:27:3c:9d:89:2f:70:3e:85:9a:6f:5c:c5:09:
                    c0:8c:32:2f:72:22:c9:d2:95:1f:b6:ac:72:60:72:
                    b7:82:4d:6b:ce:5b:e3:00:d0:d2:2f:58:c6:e0:10:
                    e5:51:ca:4d:3b:2e:e6:7e:ab:84:d6:56:f1:93:35:
                    a0:93:64:26:81:75:2f:91:b5:16:06:38:0b:db:cc:
                    2d:07
                Exponent: 65537 (0x10001)
        X509v3 extensions:
            X509v3 Key Usage: 
                Digital Signature, Key Encipherment
            X509v3 Basic Constraints: 
                CA:FALSE
            Netscape Cert Type: 
                SSL Server
            Netscape Comment: 
                OpenSSL Generated Server Certificate
            X509v3 Subject Key Identifier: 
                FC:14:D1:F0:4B:8D:00:90:F2:F5:B8:71:9E:4E:97:C3:92:54:AD:0B
            X509v3 Authority Key Identifier: 
                keyid:F4:A7:C0:CC:91:46:AF:64:F3:91:F2:27:F8:C8:B2:6F:8A:87:32:73
                DirName:/C=DE/ST=Hessen/O=privacyidea/CN=CA001
                serial:FB:C8:EB:AC:83:CD:12:07

            X509v3 Extended Key Usage: 
                TLS Web Server Authentication
    Signature Algorithm: sha256WithRSAEncryption
         83:1d:f9:61:65:8f:8b:16:0d:52:9b:b3:09:2b:da:aa:a7:80:
         6e:ee:38:60:58:73:dc:22:ff:18:92:26:53:6f:d0:d5:9d:70:
         10:55:c2:6c:4a:06:3d:3a:86:91:bd:70:9d:12:4a:59:06:9a:
         a7:11:12:cd:9c:44:29:0b:2c:94:e1:82:d9:ce:78:0a:40:f6:
         09:55:3a:00:a0:92:f5:27:f5:1b:57:e3:c8:01:66:4b:c1:e5:
         53:d1:7f:19:1c:49:24:79:69:9a:7c:37:bb:f6:d1:29:65:c9:
         2c:b3:db:e0:e2:3b:d7:9d:47:3d:06:63:b0:27:27:32:bd:42:
         18:be:a7:be:c5:b8:e1:77:df:b9:ba:d1:d6:3c:b7:73:b8:87:
         54:14:f8:b7:55:cc:f8:79:96:a9:27:69:9f:db:43:d0:a8:62:
         59:73:44:c9:94:06:2a:13:62:70:76:9b:42:17:b2:9f:62:46:
         6a:14:6c:3d:bb:3f:65:2d:dd:5f:97:32:e1:23:42:39:95:08:
         7a:b7:d6:a6:44:a9:27:1d:20:e0:d0:0c:12:91:47:37:ba:d5:
         02:bb:b2:a3:12:72:cd:ab:cd:e3:40:af:2d:a3:ab:2a:a3:a1:
         76:15:f6:e7:f7:10:1d:4a:ce:1b:e2:75:c8:f3:b1:3c:14:e8:
         f2:1d:a5:9b
-----BEGIN CERTIFICATE-----
MIIEGTCCAwGgAwIBAgIEEAAA0zANBgkqhkiG9w0BAQsFADBEMQswCQYDVQQGEwJE
RTEPMA0GA1UECAwGSGVzc2VuMRQwEgYDVQQKDAtwcml2YWN5aWRlYTEOMAwGA1UE
AwwFQ0EwMDEwHhcNMTkwMTI5MTQzNDI3WhcNMjAwMTI5MTQzNDI3WjBHMQswCQYD
VQQGEwJERTEPMA0GA1UECAwGSGVzc2VuMRQwEgYDVQQKDAtwcml2YWN5aWRlYTER
MA8GA1UEAwwIdXNlcmNlcnQwggEiMA0GCSqGSIb3DQEBAQUAA4IBDwAwggEKAoIB
AQDcL9FfKZfUfMNTyDC9S2dwLCRruF7rIXpIElZ8gVxIdbZo6/bymE5QUdF/bHPz
Cqeuvkhe5dbh2Sp8Mm5O/Qj2WlRJI3PDuQcY0e+zrPiK3JSWpJA6jnTf5g03G71b
tyUaVjnab5GqXhx08/l8FAGDEmV2x7v+NluV6XJlg+0+mDBx+ofdozZaMAMuJuBh
0b8CP7YGH0qJKBxcov9OvpTmjODagvGdKTJIMHO0BPZCHr734jIyJzydiS9wPoWa
b1zFCcCMMi9yIsnSlR+2rHJgcreCTWvOW+MA0NIvWMbgEOVRyk07LuZ+q4TWVvGT
NaCTZCaBdS+RtRYGOAvbzC0HAgMBAAGjggEOMIIBCjALBgNVHQ8EBAMCBaAwCQYD
VR0TBAIwADARBglghkgBhvhCAQEEBAMCBkAwMwYJYIZIAYb4QgENBCYWJE9wZW5T
U0wgR2VuZXJhdGVkIFNlcnZlciBDZXJ0aWZpY2F0ZTAdBgNVHQ4EFgQU/BTR8EuN
AJDy9bhxnk6Xw5JUrQswdAYDVR0jBG0wa4AU9KfAzJFGr2TzkfIn+Miyb4qHMnOh
SKRGMEQxCzAJBgNVBAYTAkRFMQ8wDQYDVQQIDAZIZXNzZW4xFDASBgNVBAoMC3By
aXZhY3lpZGVhMQ4wDAYDVQQDDAVDQTAwMYIJAPvI66yDzRIHMBMGA1UdJQQMMAoG
CCsGAQUFBwMBMA0GCSqGSIb3DQEBCwUAA4IBAQCDHflhZY+LFg1Sm7MJK9qqp4Bu
7jhgWHPcIv8YkiZTb9DVnXAQVcJsSgY9OoaRvXCdEkpZBpqnERLNnEQpCyyU4YLZ
zngKQPYJVToAoJL1J/UbV+PIAWZLweVT0X8ZHEkkeWmafDe79tEpZckss9vg4jvX
nUc9BmOwJycyvUIYvqe+xbjhd9+5utHWPLdzuIdUFPi3Vcz4eZapJ2mf20PQqGJZ
c0TJlAYqE2JwdptCF7KfYkZqFGw9uz9lLd1flzLhI0I5lQh6t9amRKknHSDg0AwS
kUc3utUCu7KjEnLNq83jQK8to6sqo6F2Ffbn9xAdSs4b4nXI87E8FOjyHaWb
-----END CERTIFICATE-----
