Certificate:
    Data:
        Version: 3 (0x2)
        Serial Number: 268435691 (0x100000eb)
    Signature Algorithm: sha256WithRSAEncryption
        Issuer: C=DE, ST=Hessen, O=privacyidea, CN=CA001
        Validity
            Not Before: Jan  9 19:49:50 2019 GMT
            Not After : Jan  9 19:49:50 2020 GMT
        Subject: C=DE, ST=Hessen, O=privacyidea, CN=requester.localdomain
        Subject Public Key Info:
            Public Key Algorithm: rsaEncryption
                Public-Key: (2048 bit)
                Modulus:
                    00:cd:be:14:4f:fa:ce:01:3f:42:22:1b:1d:9c:af:
                    dd:92:d2:7f:db:6c:b7:3e:39:43:43:6b:13:03:f1:
                    05:f4:07:74:bc:76:69:28:0b:af:19:8e:d7:fc:e3:
                    cd:c6:58:f2:ca:7f:08:6d:53:fc:07:02:44:24:c6:
                    b4:34:4c:8c:04:fe:33:0e:40:e2:20:ba:02:73:5a:
                    f7:f5:4f:63:6e:cc:c6:b6:df:54:1d:37:39:7d:51:
                    36:26:5f:bd:dc:3f:a8:8b:6b:a2:ae:b6:9d:d6:21:
                    e7:df:41:b8:7a:28:2a:68:48:ca:a8:2d:ed:e1:e9:
                    46:5e:5a:72:6d:b4:84:38:87:91:fd:94:11:0b:28:
                    84:c6:c2:2f:2a:fb:01:f9:36:7a:09:75:d1:33:88:
                    3c:73:41:5b:c8:bf:94:89:70:a1:f0:c0:b9:2e:50:
                    53:1e:b1:17:64:69:f4:2d:81:e0:a9:0d:0e:32:e9:
                    ba:55:8a:85:f1:1b:6f:49:79:b4:7f:88:c3:0d:3e:
                    54:88:9b:3d:1f:38:8c:04:f3:ee:6a:63:2b:f5:c6:
                    db:b4:83:aa:c4:78:41:3a:7d:4b:e1:c8:3e:71:ca:
                    1b:61:59:ea:c6:c4:ca:32:5e:c9:e9:bf:12:29:e6:
                    c6:c3:63:fe:a0:55:da:7a:f1:60:98:4d:26:ed:fa:
                    70:2d
                Exponent: 65537 (0x10001)
        X509v3 extensions:
            X509v3 Key Usage: 
                Digital Signature, Key Encipherment
            X509v3 Basic Constraints: 
                CA:FALSE
            Netscape Cert Type: 
                SSL Server
            Netscape Comment: 
                OpenSSL Generated Server Certificate
            X509v3 Subject Key Identifier: 
                53:3F:ED:5D:09:07:B3:65:7B:AB:45:C9:24:5B:09:77:80:0A:96:ED
            X509v3 Authority Key Identifier: 
                keyid:F4:A7:C0:CC:91:46:AF:64:F3:91:F2:27:F8:C8:B2:6F:8A:87:32:73
                DirName:/C=DE/ST=Hessen/O=privacyidea/CN=CA001
                serial:FB:C8:EB:AC:83:CD:12:07

            X509v3 Extended Key Usage: 
                TLS Web Server Authentication
    Signature Algorithm: sha256WithRSAEncryption
         b7:bc:4f:3a:d2:bc:9b:3d:2b:bc:ca:16:30:fc:18:b9:25:a4:
         cc:7d:a9:28:f1:b0:35:29:78:6f:84:d9:52:70:c7:16:ce:2c:
         1f:1f:ee:99:39:53:fc:64:21:fc:27:f2:da:52:95:1d:83:7f:
         33:04:c1:8e:28:63:7e:a3:32:31:ae:f8:16:1f:30:b0:39:81:
         ca:b1:af:23:79:84:30:9b:ed:b8:c2:4a:b4:0d:99:41:58:fe:
         e5:45:4a:0d:48:62:48:0d:75:ef:4c:77:93:16:e8:83:bc:14:
         c6:29:92:15:13:32:c7:d4:ed:23:f2:20:6f:ae:85:26:ad:92:
         f7:ed:f0:a3:b9:83:f0:b6:82:04:57:a1:94:a8:a4:c5:77:65:
         9f:e5:f4:91:09:6f:c4:aa:b7:ef:25:b6:12:cc:9b:c7:3d:a2:
         40:20:01:a1:30:b9:95:88:35:e0:45:89:09:ab:0d:a3:fb:ae:
         92:65:48:e3:11:ba:26:50:87:5f:b3:8f:1b:e8:b5:80:9b:ee:
         83:c0:01:ac:bf:31:2b:7b:b5:32:24:76:99:ff:3f:da:7f:11:
         9a:40:2c:6a:bc:60:ef:81:b1:ea:b6:65:e7:6a:91:2c:1d:ec:
         46:f9:e8:f8:c6:f3:d8:f8:9a:35:44:f4:0e:a6:d0:81:95:04:
         2a:66:38:3c
-----BEGIN CERTIFICATE-----
MIIEJjCCAw6gAwIBAgIEEAAA6zANBgkqhkiG9w0BAQsFADBEMQswCQYDVQQGEwJE
RTEPMA0GA1UECAwGSGVzc2VuMRQwEgYDVQQKDAtwcml2YWN5aWRlYTEOMAwGA1UE
AwwFQ0EwMDEwHhcNMTkwMTA5MTk0OTUwWhcNMjAwMTA5MTk0OTUwWjBUMQswCQYD
VQQGEwJERTEPMA0GA1UECAwGSGVzc2VuMRQwEgYDVQQKDAtwcml2YWN5aWRlYTEe
MBwGA1UEAwwVcmVxdWVzdGVyLmxvY2FsZG9tYWluMIIBIjANBgkqhkiG9w0BAQEF
AAOCAQ8AMIIBCgKCAQEAzb4UT/rOAT9CIhsdnK/dktJ/22y3PjlDQ2sTA/EF9Ad0
vHZpKAuvGY7X/OPNxljyyn8IbVP8BwJEJMa0NEyMBP4zDkDiILoCc1r39U9jbszG
tt9UHTc5fVE2Jl+93D+oi2uirrad1iHn30G4eigqaEjKqC3t4elGXlpybbSEOIeR
/ZQRCyiExsIvKvsB+TZ6CXXRM4g8c0FbyL+UiXCh8MC5LlBTHrEXZGn0LYHgqQ0O
Mum6VYqF8RtvSXm0f4jDDT5UiJs9HziMBPPuamMr9cbbtIOqxHhBOn1L4cg+ccob
YVnqxsTKMl7J6b8SKebGw2P+oFXaevFgmE0m7fpwLQIDAQABo4IBDjCCAQowCwYD
VR0PBAQDAgWgMAkGA1UdEwQCMAAwEQYJYIZIAYb4QgEBBAQDAgZAMDMGCWCGSAGG
+EIBDQQmFiRPcGVuU1NMIEdlbmVyYXRlZCBTZXJ2ZXIgQ2VydGlmaWNhdGUwHQYD
VR0OBBYEFFM/7V0JB7Nle6tFySRbCXeACpbtMHQGA1UdIwRtMGuAFPSnwMyRRq9k
85HyJ/jIsm+KhzJzoUikRjBEMQswCQYDVQQGEwJERTEPMA0GA1UECAwGSGVzc2Vu
MRQwEgYDVQQKDAtwcml2YWN5aWRlYTEOMAwGA1UEAwwFQ0EwMDGCCQD7yOusg80S
BzATBgNVHSUEDDAKBggrBgEFBQcDATANBgkqhkiG9w0BAQsFAAOCAQEAt7xPOtK8
mz0rvMoWMPwYuSWkzH2pKPGwNSl4b4TZUnDHFs4sHx/umTlT/GQh/Cfy2lKVHYN/
MwTBjihjfqMyMa74Fh8wsDmByrGvI3mEMJvtuMJKtA2ZQVj+5UVKDUhiSA1170x3
kxbog7wUximSFRMyx9TtI/Igb66FJq2S9+3wo7mD8LaCBFehlKikxXdln+X0kQlv
xKq37yW2Esybxz2iQCABoTC5lYg14EWJCasNo/uukmVI4xG6JlCHX7OPG+i1gJvu
g8ABrL8xK3u1MiR2mf8/2n8RmkAsarxg74Gx6rZl52qRLB3sRvno+Mbz2PiaNUT0
DqbQgZUEKmY4PA==
-----END CERTIFICATE-----
