Certificate:
    Data:
        Version: 3 (0x2)
        Serial Number: 268435670 (0x100000d6)
    Signature Algorithm: sha256WithRSAEncryption
        Issuer: C=DE, ST=Hessen, O=privacyidea, CN=CA001
        Validity
            Not Before: Jan 29 14:38:58 2019 GMT
            Not After : Jan 29 14:38:58 2020 GMT
        Subject: C=DE, ST=Hessen, O=privacyidea, CN=requester.localdomain
        Subject Public Key Info:
            Public Key Algorithm: rsaEncryption
                Public-Key: (2048 bit)
                Modulus:
                    00:cd:be:14:4f:fa:ce:01:3f:42:22:1b:1d:9c:af:
                    dd:92:d2:7f:db:6c:b7:3e:39:43:43:6b:13:03:f1:
                    05:f4:07:74:bc:76:69:28:0b:af:19:8e:d7:fc:e3:
                    cd:c6:58:f2:ca:7f:08:6d:53:fc:07:02:44:24:c6:
                    b4:34:4c:8c:04:fe:33:0e:40:e2:20:ba:02:73:5a:
                    f7:f5:4f:63:6e:cc:c6:b6:df:54:1d:37:39:7d:51:
                    36:26:5f:bd:dc:3f:a8:8b:6b:a2:ae:b6:9d:d6:21:
                    e7:df:41:b8:7a:28:2a:68:48:ca:a8:2d:ed:e1:e9:
                    46:5e:5a:72:6d:b4:84:38:87:91:fd:94:11:0b:28:
                    84:c6:c2:2f:2a:fb:01:f9:36:7a:09:75:d1:33:88:
                    3c:73:41:5b:c8:bf:94:89:70:a1:f0:c0:b9:2e:50:
                    53:1e:b1:17:64:69:f4:2d:81:e0:a9:0d:0e:32:e9:
                    ba:55:8a:85:f1:1b:6f:49:79:b4:7f:88:c3:0d:3e:
                    54:88:9b:3d:1f:38:8c:04:f3:ee:6a:63:2b:f5:c6:
                    db:b4:83:aa:c4:78:41:3a:7d:4b:e1:c8:3e:71:ca:
                    1b:61:59:ea:c6:c4:ca:32:5e:c9:e9:bf:12:29:e6:
                    c6:c3:63:fe:a0:55:da:7a:f1:60:98:4d:26:ed:fa:
                    70:2d
                Exponent: 65537 (0x10001)
        X509v3 extensions:
            X509v3 Key Usage: 
                Digital Signature, Key Encipherment
            X509v3 Basic Constraints: 
                CA:FALSE
            Netscape Cert Type: 
                SSL Server
            Netscape Comment: 
                OpenSSL Generated Server Certificate
            X509v3 Subject Key Identifier: 
                53:3F:ED:5D:09:07:B3:65:7B:AB:45:C9:24:5B:09:77:80:0A:96:ED
            X509v3 Authority Key Identifier: 
                keyid:F4:A7:C0:CC:91:46:AF:64:F3:91:F2:27:F8:C8:B2:6F:8A:87:32:73
                DirName:/C=DE/ST=Hessen/O=privacyidea/CN=CA001
                serial:FB:C8:EB:AC:83:CD:12:07

            X509v3 Extended Key Usage: 
                TLS Web Server Authentication
    Signature Algorithm: sha256WithRSAEncryption
         0a:c2:b6:3e:3f:1b:a0:35:98:2f:b9:1d:25:3a:e8:8e:d4:09:
         ec:16:5b:4a:06:fd:b3:74:e1:a3:f9:2e:ad:81:0a:3b:bf:11:
         51:0a:7b:2d:7b:ca:48:ad:81:82:fb:aa:96:ea:01:ac:25:04:
         e9:a9:d4:02:22:bd:a0:3a:b0:f8:47:1b:6d:f9:51:35:e8:95:
         bb:e1:b8:55:33:70:bf:49:e6:20:46:79:b2:83:aa:74:59:10:
         8f:e2:e1:08:34:f4:3b:c7:17:cd:5f:97:fb:1d:09:de:c0:e7:
         ea:a0:5d:bd:14:7b:c6:dc:d7:66:66:c5:32:a9:3f:1b:65:2a:
         26:54:25:ca:b6:4e:cc:69:a3:62:d8:57:1e:a2:58:5c:84:50:
         3b:cb:4a:40:0d:d9:2b:a1:07:b6:2b:1d:03:d0:c0:b7:cb:97:
         bc:1a:99:31:55:e7:2c:9b:9a:d4:d5:9c:bf:8b:7b:af:8e:b0:
         cf:3e:f5:da:4a:df:4b:7a:5b:d4:47:bd:ee:91:e7:a3:ad:b5:
         34:d7:13:07:de:c7:f1:7e:a4:86:e6:ad:c5:fb:5d:9c:bd:83:
         36:44:e4:2d:eb:0d:b0:ea:bb:7b:00:bb:ec:84:32:dc:8b:01:
         af:66:ea:bf:a3:14:89:20:94:aa:59:87:7c:ef:b9:22:a6:87:
         fa:d0:87:8e
-----BEGIN CERTIFICATE-----
MIIEJjCCAw6gAwIBAgIEEAAA1jANBgkqhkiG9w0BAQsFADBEMQswCQYDVQQGEwJE
RTEPMA0GA1UECAwGSGVzc2VuMRQwEgYDVQQKDAtwcml2YWN5aWRlYTEOMAwGA1UE
AwwFQ0EwMDEwHhcNMTkwMTI5MTQzODU4WhcNMjAwMTI5MTQzODU4WjBUMQswCQYD
VQQGEwJERTEPMA0GA1UECAwGSGVzc2VuMRQwEgYDVQQKDAtwcml2YWN5aWRlYTEe
MBwGA1UEAwwVcmVxdWVzdGVyLmxvY2FsZG9tYWluMIIBIjANBgkqhkiG9w0BAQEF
AAOCAQ8AMIIBCgKCAQEAzb4UT/rOAT9CIhsdnK/dktJ/22y3PjlDQ2sTA/EF9Ad0
vHZpKAuvGY7X/OPNxljyyn8IbVP8BwJEJMa0NEyMBP4zDkDiILoCc1r39U9jbszG
tt9UHTc5fVE2Jl+93D+oi2uirrad1iHn30G4eigqaEjKqC3t4elGXlpybbSEOIeR
/ZQRCyiExsIvKvsB+TZ6CXXRM4g8c0FbyL+UiXCh8MC5LlBTHrEXZGn0LYHgqQ0O
Mum6VYqF8RtvSXm0f4jDDT5UiJs9HziMBPPuamMr9cbbtIOqxHhBOn1L4cg+ccob
YVnqxsTKMl7J6b8SKebGw2P+oFXaevFgmE0m7fpwLQIDAQABo4IBDjCCAQowCwYD
VR0PBAQDAgWgMAkGA1UdEwQCMAAwEQYJYIZIAYb4QgEBBAQDAgZAMDMGCWCGSAGG
+EIBDQQmFiRPcGVuU1NMIEdlbmVyYXRlZCBTZXJ2ZXIgQ2VydGlmaWNhdGUwHQYD
VR0OBBYEFFM/7V0JB7Nle6tFySRbCXeACpbtMHQGA1UdIwRtMGuAFPSnwMyRRq9k
85HyJ/jIsm+KhzJzoUikRjBEMQswCQYDVQQGEwJERTEPMA0GA1UECAwGSGVzc2Vu
MRQwEgYDVQQKDAtwcml2YWN5aWRlYTEOMAwGA1UEAwwFQ0EwMDGCCQD7yOusg80S
BzATBgNVHSUEDDAKBggrBgEFBQcDATANBgkqhkiG9w0BAQsFAAOCAQEACsK2Pj8b
oDWYL7kdJTrojtQJ7BZbSgb9s3Tho/kurYEKO78RUQp7LXvKSK2BgvuqluoBrCUE
6anUAiK9oDqw+EcbbflRNeiVu+G4VTNwv0nmIEZ5soOqdFkQj+LhCDT0O8cXzV+X
+x0J3sDn6qBdvRR7xtzXZmbFMqk/G2UqJlQlyrZOzGmjYthXHqJYXIRQO8tKQA3Z
K6EHtisdA9DAt8uXvBqZMVXnLJua1NWcv4t7r46wzz712krfS3pb1Ee97pHno621
NNcTB97H8X6khuatxftdnL2DNkTkLesNsOq7ewC77IQy3IsBr2bqv6MUiSCUqlmH
fO+5IqaH+tCHjg==
-----END CERTIFICATE-----
