Certificate:
    Data:
        Version: 3 (0x2)
        Serial Number: 268435695 (0x100000ef)
    Signature Algorithm: sha256WithRSAEncryption
        Issuer: C=DE, ST=Hessen, O=privacyidea, CN=CA001
        Validity
            Not Before: Jan  9 20:05:02 2019 GMT
            Not After : Jan  9 20:05:02 2020 GMT
        Subject: C=DE, ST=Hessen, O=privacyidea, CN=usercert
        Subject Public Key Info:
            Public Key Algorithm: rsaEncryption
                Public-Key: (2048 bit)
                Modulus:
                    00:dc:2f:d1:5f:29:97:d4:7c:c3:53:c8:30:bd:4b:
                    67:70:2c:24:6b:b8:5e:eb:21:7a:48:12:56:7c:81:
                    5c:48:75:b6:68:eb:f6:f2:98:4e:50:51:d1:7f:6c:
                    73:f3:0a:a7:ae:be:48:5e:e5:d6:e1:d9:2a:7c:32:
                    6e:4e:fd:08:f6:5a:54:49:23:73:c3:b9:07:18:d1:
                    ef:b3:ac:f8:8a:dc:94:96:a4:90:3a:8e:74:df:e6:
                    0d:37:1b:bd:5b:b7:25:1a:56:39:da:6f:91:aa:5e:
                    1c:74:f3:f9:7c:14:01:83:12:65:76:c7:bb:fe:36:
                    5b:95:e9:72:65:83:ed:3e:98:30:71:fa:87:dd:a3:
                    36:5a:30:03:2e:26:e0:61:d1:bf:02:3f:b6:06:1f:
                    4a:89:28:1c:5c:a2:ff:4e:be:94:e6:8c:e0:da:82:
                    f1:9d:29:32:48:30:73:b4:04:f6:42:1e:be:f7:e2:
                    32:32:27:3c:9d:89:2f:70:3e:85:9a:6f:5c:c5:09:
                    c0:8c:32:2f:72:22:c9:d2:95:1f:b6:ac:72:60:72:
                    b7:82:4d:6b:ce:5b:e3:00:d0:d2:2f:58:c6:e0:10:
                    e5:51:ca:4d:3b:2e:e6:7e:ab:84:d6:56:f1:93:35:
                    a0:93:64:26:81:75:2f:91:b5:16:06:38:0b:db:cc:
                    2d:07
                Exponent: 65537 (0x10001)
        X509v3 extensions:
            X509v3 Key Usage: 
                Digital Signature, Key Encipherment
            X509v3 Basic Constraints: 
                CA:FALSE
            Netscape Cert Type: 
                SSL Server
            Netscape Comment: 
                OpenSSL Generated Server Certificate
            X509v3 Subject Key Identifier: 
                FC:14:D1:F0:4B:8D:00:90:F2:F5:B8:71:9E:4E:97:C3:92:54:AD:0B
            X509v3 Authority Key Identifier: 
                keyid:F4:A7:C0:CC:91:46:AF:64:F3:91:F2:27:F8:C8:B2:6F:8A:87:32:73
                DirName:/C=DE/ST=Hessen/O=privacyidea/CN=CA001
                serial:FB:C8:EB:AC:83:CD:12:07

            X509v3 Extended Key Usage: 
                TLS Web Server Authentication
    Signature Algorithm: sha256WithRSAEncryption
         51:09:96:74:bc:be:16:4d:e9:26:51:38:78:69:cc:f5:59:86:
         10:0e:69:95:86:04:8f:99:dc:cd:95:1f:cd:ec:89:15:9e:ec:
         67:99:2d:c4:c9:c1:b7:10:4c:d3:0a:bf:93:32:52:13:26:52:
         ae:e7:b4:f6:d3:0a:e6:0a:c2:a9:1f:b5:f2:0f:35:36:69:11:
         ba:42:01:70:57:df:ac:0f:15:a2:d1:45:7d:3c:a6:8a:50:c0:
         49:4d:8d:9a:a7:75:5d:a9:3f:e9:0d:e5:8c:cf:21:f2:44:61:
         1a:ff:4a:14:e7:5a:aa:e8:2f:20:1c:70:89:e2:6f:55:bd:bf:
         c6:d1:40:e2:c3:85:7f:73:e3:ea:7b:e7:b6:5e:cd:68:5d:78:
         f2:4c:02:1f:84:e0:e1:2b:02:43:f2:5a:b2:49:84:a7:0c:00:
         4b:90:15:99:41:b2:82:91:81:74:5f:28:6f:28:d0:72:8a:26:
         1c:48:39:b0:db:15:c0:9e:58:78:b2:06:e6:4b:69:22:59:4a:
         85:69:38:cf:4c:d3:b2:1f:00:44:4c:e5:54:9d:a8:8f:fd:c5:
         ca:92:b1:63:6e:a0:d4:8f:4c:12:85:19:7e:00:63:33:31:24:
         c9:56:2a:72:7c:f1:78:8b:dc:f4:1b:98:36:0c:ee:54:be:ea:
         42:00:7c:25
-----BEGIN CERTIFICATE-----
MIIEGTCCAwGgAwIBAgIEEAAA7zANBgkqhkiG9w0BAQsFADBEMQswCQYDVQQGEwJE
RTEPMA0GA1UECAwGSGVzc2VuMRQwEgYDVQQKDAtwcml2YWN5aWRlYTEOMAwGA1UE
AwwFQ0EwMDEwHhcNMTkwMTA5MjAwNTAyWhcNMjAwMTA5MjAwNTAyWjBHMQswCQYD
VQQGEwJERTEPMA0GA1UECAwGSGVzc2VuMRQwEgYDVQQKDAtwcml2YWN5aWRlYTER
MA8GA1UEAwwIdXNlcmNlcnQwggEiMA0GCSqGSIb3DQEBAQUAA4IBDwAwggEKAoIB
AQDcL9FfKZfUfMNTyDC9S2dwLCRruF7rIXpIElZ8gVxIdbZo6/bymE5QUdF/bHPz
Cqeuvkhe5dbh2Sp8Mm5O/Qj2WlRJI3PDuQcY0e+zrPiK3JSWpJA6jnTf5g03G71b
tyUaVjnab5GqXhx08/l8FAGDEmV2x7v+NluV6XJlg+0+mDBx+ofdozZaMAMuJuBh
0b8CP7YGH0qJKBxcov9OvpTmjODagvGdKTJIMHO0BPZCHr734jIyJzydiS9wPoWa
b1zFCcCMMi9yIsnSlR+2rHJgcreCTWvOW+MA0NIvWMbgEOVRyk07LuZ+q4TWVvGT
NaCTZCaBdS+RtRYGOAvbzC0HAgMBAAGjggEOMIIBCjALBgNVHQ8EBAMCBaAwCQYD
VR0TBAIwADARBglghkgBhvhCAQEEBAMCBkAwMwYJYIZIAYb4QgENBCYWJE9wZW5T
U0wgR2VuZXJhdGVkIFNlcnZlciBDZXJ0aWZpY2F0ZTAdBgNVHQ4EFgQU/BTR8EuN
AJDy9bhxnk6Xw5JUrQswdAYDVR0jBG0wa4AU9KfAzJFGr2TzkfIn+Miyb4qHMnOh
SKRGMEQxCzAJBgNVBAYTAkRFMQ8wDQYDVQQIDAZIZXNzZW4xFDASBgNVBAoMC3By
aXZhY3lpZGVhMQ4wDAYDVQQDDAVDQTAwMYIJAPvI66yDzRIHMBMGA1UdJQQMMAoG
CCsGAQUFBwMBMA0GCSqGSIb3DQEBCwUAA4IBAQBRCZZ0vL4WTekmUTh4acz1WYYQ
DmmVhgSPmdzNlR/N7IkVnuxnmS3EycG3EEzTCr+TMlITJlKu57T20wrmCsKpH7Xy
DzU2aRG6QgFwV9+sDxWi0UV9PKaKUMBJTY2ap3VdqT/pDeWMzyHyRGEa/0oU51qq
6C8gHHCJ4m9Vvb/G0UDiw4V/c+Pqe+e2Xs1oXXjyTAIfhODhKwJD8lqySYSnDABL
kBWZQbKCkYF0XyhvKNByiiYcSDmw2xXAnlh4sgbmS2kiWUqFaTjPTNOyHwBETOVU
naiP/cXKkrFjbqDUj0wShRl+AGMzMSTJVipyfPF4i9z0G5g2DO5UvupCAHwl
-----END CERTIFICATE-----
