Certificate:
    Data:
        Version: 3 (0x2)
        Serial Number: 268435680 (0x100000e0)
    Signature Algorithm: sha256WithRSAEncryption
        Issuer: C=DE, ST=Hessen, O=privacyidea, CN=CA001
        Validity
            Not Before: Jan  9 19:28:54 2019 GMT
            Not After : Jan  9 19:28:54 2020 GMT
        Subject: C=DE, ST=Hessen, O=privacyidea, CN=requester.localdomain
        Subject Public Key Info:
            Public Key Algorithm: rsaEncryption
                Public-Key: (2048 bit)
                Modulus:
                    00:cd:be:14:4f:fa:ce:01:3f:42:22:1b:1d:9c:af:
                    dd:92:d2:7f:db:6c:b7:3e:39:43:43:6b:13:03:f1:
                    05:f4:07:74:bc:76:69:28:0b:af:19:8e:d7:fc:e3:
                    cd:c6:58:f2:ca:7f:08:6d:53:fc:07:02:44:24:c6:
                    b4:34:4c:8c:04:fe:33:0e:40:e2:20:ba:02:73:5a:
                    f7:f5:4f:63:6e:cc:c6:b6:df:54:1d:37:39:7d:51:
                    36:26:5f:bd:dc:3f:a8:8b:6b:a2:ae:b6:9d:d6:21:
                    e7:df:41:b8:7a:28:2a:68:48:ca:a8:2d:ed:e1:e9:
                    46:5e:5a:72:6d:b4:84:38:87:91:fd:94:11:0b:28:
                    84:c6:c2:2f:2a:fb:01:f9:36:7a:09:75:d1:33:88:
                    3c:73:41:5b:c8:bf:94:89:70:a1:f0:c0:b9:2e:50:
                    53:1e:b1:17:64:69:f4:2d:81:e0:a9:0d:0e:32:e9:
                    ba:55:8a:85:f1:1b:6f:49:79:b4:7f:88:c3:0d:3e:
                    54:88:9b:3d:1f:38:8c:04:f3:ee:6a:63:2b:f5:c6:
                    db:b4:83:aa:c4:78:41:3a:7d:4b:e1:c8:3e:71:ca:
                    1b:61:59:ea:c6:c4:ca:32:5e:c9:e9:bf:12:29:e6:
                    c6:c3:63:fe:a0:55:da:7a:f1:60:98:4d:26:ed:fa:
                    70:2d
                Exponent: 65537 (0x10001)
        X509v3 extensions:
            X509v3 Key Usage: 
                Digital Signature, Key Encipherment
            X509v3 Basic Constraints: 
                CA:FALSE
            Netscape Cert Type: 
                SSL Server
            Netscape Comment: 
                OpenSSL Generated Server Certificate
            X509v3 Subject Key Identifier: 
                53:3F:ED:5D:09:07:B3:65:7B:AB:45:C9:24:5B:09:77:80:0A:96:ED
            X509v3 Authority Key Identifier: 
                keyid:F4:A7:C0:CC:91:46:AF:64:F3:91:F2:27:F8:C8:B2:6F:8A:87:32:73
                DirName:/C=DE/ST=Hessen/O=privacyidea/CN=CA001
                serial:FB:C8:EB:AC:83:CD:12:07

            X509v3 Extended Key Usage: 
                TLS Web Server Authentication
    Signature Algorithm: sha256WithRSAEncryption
         37:3d:09:d4:da:7c:61:15:41:62:3d:27:b6:66:3e:c6:7f:8d:
         05:84:87:4f:c1:a9:a6:1d:da:dd:e0:f8:be:74:30:fb:0c:fd:
         f3:1a:1f:37:51:da:cc:8c:34:71:47:54:1c:c0:0a:00:b4:78:
         8d:61:c6:e9:f6:dc:fb:ba:da:0c:72:cb:2f:99:e3:28:d2:4b:
         c1:95:80:12:56:32:fd:dc:1e:1e:cc:cb:c8:7f:18:86:cb:86:
         b2:76:79:90:0b:ea:6a:46:87:b0:ff:c4:bf:bf:6d:bf:31:f5:
         d6:b4:0f:31:5e:f2:b2:be:35:5a:03:95:5c:f7:96:fc:d5:4c:
         12:3c:53:05:03:a2:b1:1e:06:36:97:36:e4:69:12:91:2c:9f:
         11:d9:88:40:d0:c6:5b:79:d5:92:1b:9f:a4:ef:fc:e7:77:79:
         b9:f2:83:01:23:96:6e:45:32:e6:6f:46:db:6a:3a:a2:43:de:
         5b:e5:c3:b4:83:2d:8f:e6:3c:11:64:50:93:32:6c:90:05:eb:
         5d:4b:7a:f3:26:4f:da:59:71:03:69:43:b5:ab:62:96:d0:42:
         95:f5:55:e4:b3:cd:bc:79:c2:79:04:39:b7:ed:0a:19:0b:fa:
         fd:a4:b0:94:3c:4f:7c:63:cf:a3:cd:21:90:26:42:1c:fb:d6:
         9e:1a:7c:79
-----BEGIN CERTIFICATE-----
MIIEJjCCAw6gAwIBAgIEEAAA4DANBgkqhkiG9w0BAQsFADBEMQswCQYDVQQGEwJE
RTEPMA0GA1UECAwGSGVzc2VuMRQwEgYDVQQKDAtwcml2YWN5aWRlYTEOMAwGA1UE
AwwFQ0EwMDEwHhcNMTkwMTA5MTkyODU0WhcNMjAwMTA5MTkyODU0WjBUMQswCQYD
VQQGEwJERTEPMA0GA1UECAwGSGVzc2VuMRQwEgYDVQQKDAtwcml2YWN5aWRlYTEe
MBwGA1UEAwwVcmVxdWVzdGVyLmxvY2FsZG9tYWluMIIBIjANBgkqhkiG9w0BAQEF
AAOCAQ8AMIIBCgKCAQEAzb4UT/rOAT9CIhsdnK/dktJ/22y3PjlDQ2sTA/EF9Ad0
vHZpKAuvGY7X/OPNxljyyn8IbVP8BwJEJMa0NEyMBP4zDkDiILoCc1r39U9jbszG
tt9UHTc5fVE2Jl+93D+oi2uirrad1iHn30G4eigqaEjKqC3t4elGXlpybbSEOIeR
/ZQRCyiExsIvKvsB+TZ6CXXRM4g8c0FbyL+UiXCh8MC5LlBTHrEXZGn0LYHgqQ0O
Mum6VYqF8RtvSXm0f4jDDT5UiJs9HziMBPPuamMr9cbbtIOqxHhBOn1L4cg+ccob
YVnqxsTKMl7J6b8SKebGw2P+oFXaevFgmE0m7fpwLQIDAQABo4IBDjCCAQowCwYD
VR0PBAQDAgWgMAkGA1UdEwQCMAAwEQYJYIZIAYb4QgEBBAQDAgZAMDMGCWCGSAGG
+EIBDQQmFiRPcGVuU1NMIEdlbmVyYXRlZCBTZXJ2ZXIgQ2VydGlmaWNhdGUwHQYD
VR0OBBYEFFM/7V0JB7Nle6tFySRbCXeACpbtMHQGA1UdIwRtMGuAFPSnwMyRRq9k
85HyJ/jIsm+KhzJzoUikRjBEMQswCQYDVQQGEwJERTEPMA0GA1UECAwGSGVzc2Vu
MRQwEgYDVQQKDAtwcml2YWN5aWRlYTEOMAwGA1UEAwwFQ0EwMDGCCQD7yOusg80S
BzATBgNVHSUEDDAKBggrBgEFBQcDATANBgkqhkiG9w0BAQsFAAOCAQEANz0J1Np8
YRVBYj0ntmY+xn+NBYSHT8Gpph3a3eD4vnQw+wz98xofN1HazIw0cUdUHMAKALR4
jWHG6fbc+7raDHLLL5njKNJLwZWAElYy/dweHszLyH8YhsuGsnZ5kAvqakaHsP/E
v79tvzH11rQPMV7ysr41WgOVXPeW/NVMEjxTBQOisR4GNpc25GkSkSyfEdmIQNDG
W3nVkhufpO/853d5ufKDASOWbkUy5m9G22o6okPeW+XDtIMtj+Y8EWRQkzJskAXr
XUt68yZP2llxA2lDtatiltBClfVV5LPNvHnCeQQ5t+0KGQv6/aSwlDxPfGPPo80h
kCZCHPvWnhp8eQ==
-----END CERTIFICATE-----
