Certificate:
    Data:
        Version: 3 (0x2)
        Serial Number: 268435665 (0x100000d1)
    Signature Algorithm: sha256WithRSAEncryption
        Issuer: C=DE, ST=Hessen, O=privacyidea, CN=CA001
        Validity
            Not Before: Jan 29 14:31:49 2019 GMT
            Not After : Jan 29 14:31:49 2020 GMT
        Subject: C=DE, ST=Hessen, O=privacyidea, CN=requester.localdomain
        Subject Public Key Info:
            Public Key Algorithm: rsaEncryption
                Public-Key: (2048 bit)
                Modulus:
                    00:cd:be:14:4f:fa:ce:01:3f:42:22:1b:1d:9c:af:
                    dd:92:d2:7f:db:6c:b7:3e:39:43:43:6b:13:03:f1:
                    05:f4:07:74:bc:76:69:28:0b:af:19:8e:d7:fc:e3:
                    cd:c6:58:f2:ca:7f:08:6d:53:fc:07:02:44:24:c6:
                    b4:34:4c:8c:04:fe:33:0e:40:e2:20:ba:02:73:5a:
                    f7:f5:4f:63:6e:cc:c6:b6:df:54:1d:37:39:7d:51:
                    36:26:5f:bd:dc:3f:a8:8b:6b:a2:ae:b6:9d:d6:21:
                    e7:df:41:b8:7a:28:2a:68:48:ca:a8:2d:ed:e1:e9:
                    46:5e:5a:72:6d:b4:84:38:87:91:fd:94:11:0b:28:
                    84:c6:c2:2f:2a:fb:01:f9:36:7a:09:75:d1:33:88:
                    3c:73:41:5b:c8:bf:94:89:70:a1:f0:c0:b9:2e:50:
                    53:1e:b1:17:64:69:f4:2d:81:e0:a9:0d:0e:32:e9:
                    ba:55:8a:85:f1:1b:6f:49:79:b4:7f:88:c3:0d:3e:
                    54:88:9b:3d:1f:38:8c:04:f3:ee:6a:63:2b:f5:c6:
                    db:b4:83:aa:c4:78:41:3a:7d:4b:e1:c8:3e:71:ca:
                    1b:61:59:ea:c6:c4:ca:32:5e:c9:e9:bf:12:29:e6:
                    c6:c3:63:fe:a0:55:da:7a:f1:60:98:4d:26:ed:fa:
                    70:2d
                Exponent: 65537 (0x10001)
        X509v3 extensions:
            X509v3 Key Usage: 
                Digital Signature, Key Encipherment
            X509v3 Basic Constraints: 
                CA:FALSE
            Netscape Cert Type: 
                SSL Server
            Netscape Comment: 
                OpenSSL Generated Server Certificate
            X509v3 Subject Key Identifier: 
                53:3F:ED:5D:09:07:B3:65:7B:AB:45:C9:24:5B:09:77:80:0A:96:ED
            X509v3 Authority Key Identifier: 
                keyid:F4:A7:C0:CC:91:46:AF:64:F3:91:F2:27:F8:C8:B2:6F:8A:87:32:73
                DirName:/C=DE/ST=Hessen/O=privacyidea/CN=CA001
                serial:FB:C8:EB:AC:83:CD:12:07

            X509v3 Extended Key Usage: 
                TLS Web Server Authentication
    Signature Algorithm: sha256WithRSAEncryption
         7f:f0:74:04:0d:8b:27:9d:ab:a3:6f:00:d1:77:12:cf:f0:22:
         67:b7:03:c9:a1:6f:7c:5b:53:6f:89:46:92:bb:d6:04:f5:25:
         7f:92:84:d7:1b:f2:16:33:ba:e9:64:ef:57:00:75:73:d8:57:
         11:4a:52:9f:78:5f:46:9c:71:8d:86:01:3a:cc:0f:4b:0c:09:
         4e:f0:9e:47:8e:01:d7:55:c3:cc:c2:fd:d9:85:e4:64:11:3a:
         89:2f:86:b9:88:37:40:a3:17:2f:fc:b6:8e:36:e2:25:f1:57:
         a0:4d:bf:3e:5d:73:3a:2a:f9:11:cf:c8:c2:f8:d5:42:91:4b:
         ef:08:c3:aa:4f:1e:30:83:48:b7:16:60:5f:98:b3:82:63:aa:
         3c:95:7b:85:22:e5:81:54:a1:b2:9c:03:e5:6e:a5:e1:79:c0:
         72:26:f2:c1:db:3e:2d:7f:d4:d7:3f:04:dd:ca:54:38:55:61:
         4c:6a:42:db:fa:e8:e8:ad:a1:94:79:ab:33:1b:e1:59:cb:bc:
         f0:50:66:fe:05:b2:86:a4:9d:ed:ad:6e:d9:86:1d:08:4a:77:
         d2:25:9d:65:e2:0c:8e:25:92:07:71:d4:32:d8:38:47:39:de:
         ce:ad:3f:6c:cc:00:4a:c3:ef:c9:ba:2e:30:58:ba:32:c0:ea:
         08:62:32:d2
-----BEGIN CERTIFICATE-----
MIIEJjCCAw6gAwIBAgIEEAAA0TANBgkqhkiG9w0BAQsFADBEMQswCQYDVQQGEwJE
RTEPMA0GA1UECAwGSGVzc2VuMRQwEgYDVQQKDAtwcml2YWN5aWRlYTEOMAwGA1UE
AwwFQ0EwMDEwHhcNMTkwMTI5MTQzMTQ5WhcNMjAwMTI5MTQzMTQ5WjBUMQswCQYD
VQQGEwJERTEPMA0GA1UECAwGSGVzc2VuMRQwEgYDVQQKDAtwcml2YWN5aWRlYTEe
MBwGA1UEAwwVcmVxdWVzdGVyLmxvY2FsZG9tYWluMIIBIjANBgkqhkiG9w0BAQEF
AAOCAQ8AMIIBCgKCAQEAzb4UT/rOAT9CIhsdnK/dktJ/22y3PjlDQ2sTA/EF9Ad0
vHZpKAuvGY7X/OPNxljyyn8IbVP8BwJEJMa0NEyMBP4zDkDiILoCc1r39U9jbszG
tt9UHTc5fVE2Jl+93D+oi2uirrad1iHn30G4eigqaEjKqC3t4elGXlpybbSEOIeR
/ZQRCyiExsIvKvsB+TZ6CXXRM4g8c0FbyL+UiXCh8MC5LlBTHrEXZGn0LYHgqQ0O
Mum6VYqF8RtvSXm0f4jDDT5UiJs9HziMBPPuamMr9cbbtIOqxHhBOn1L4cg+ccob
YVnqxsTKMl7J6b8SKebGw2P+oFXaevFgmE0m7fpwLQIDAQABo4IBDjCCAQowCwYD
VR0PBAQDAgWgMAkGA1UdEwQCMAAwEQYJYIZIAYb4QgEBBAQDAgZAMDMGCWCGSAGG
+EIBDQQmFiRPcGVuU1NMIEdlbmVyYXRlZCBTZXJ2ZXIgQ2VydGlmaWNhdGUwHQYD
VR0OBBYEFFM/7V0JB7Nle6tFySRbCXeACpbtMHQGA1UdIwRtMGuAFPSnwMyRRq9k
85HyJ/jIsm+KhzJzoUikRjBEMQswCQYDVQQGEwJERTEPMA0GA1UECAwGSGVzc2Vu
MRQwEgYDVQQKDAtwcml2YWN5aWRlYTEOMAwGA1UEAwwFQ0EwMDGCCQD7yOusg80S
BzATBgNVHSUEDDAKBggrBgEFBQcDATANBgkqhkiG9w0BAQsFAAOCAQEAf/B0BA2L
J52ro28A0XcSz/AiZ7cDyaFvfFtTb4lGkrvWBPUlf5KE1xvyFjO66WTvVwB1c9hX
EUpSn3hfRpxxjYYBOswPSwwJTvCeR44B11XDzML92YXkZBE6iS+GuYg3QKMXL/y2
jjbiJfFXoE2/Pl1zOir5Ec/IwvjVQpFL7wjDqk8eMINItxZgX5izgmOqPJV7hSLl
gVShspwD5W6l4XnAcibywds+LX/U1z8E3cpUOFVhTGpC2/ro6K2hlHmrMxvhWcu8
8FBm/gWyhqSd7a1u2YYdCEp30iWdZeIMjiWSB3HUMtg4Rznezq0/bMwASsPvybou
MFi6MsDqCGIy0g==
-----END CERTIFICATE-----
