Certificate:
    Data:
        Version: 3 (0x2)
        Serial Number: 268435669 (0x100000d5)
    Signature Algorithm: sha256WithRSAEncryption
        Issuer: C=DE, ST=Hessen, O=privacyidea, CN=CA001
        Validity
            Not Before: Jan 29 14:34:28 2019 GMT
            Not After : Feb 17 14:34:28 2021 GMT
        Subject: CN=Steve Test/emailAddress=steve@openssl.org
        Subject Public Key Info:
            Public Key Algorithm: rsaEncryption
                Public-Key: (2048 bit)
                Modulus:
                    00:d2:81:89:20:51:48:0f:73:f4:11:32:24:d5:1f:
                    1c:fd:5c:f5:b6:e6:c5:f0:52:81:dc:d2:af:66:4a:
                    7c:93:31:61:5c:af:d1:6d:06:70:03:60:7c:72:0c:
                    88:dd:49:cd:9e:02:6c:d2:5a:d7:53:0f:f3:da:be:
                    69:64:b5:0f:0c:00:e3:b3:50:47:a3:b3:9b:ba:13:
                    50:d6:58:5a:4b:ab:39:e0:11:ca:0a:27:67:03:78:
                    22:66:6d:92:1e:1b:5c:49:ae:e6:6b:d1:8e:3b:9d:
                    06:d3:c6:ac:4d:53:43:10:ab:e8:96:c1:87:82:97:
                    99:8f:20:d3:99:12:37:31:84:e1:8a:ff:29:03:5f:
                    22:90:3e:7f:9b:e0:20:c1:ad:dc:ae:4c:39:1a:31:
                    96:17:02:8c:b2:d9:b4:0d:20:12:9b:7d:86:54:fd:
                    33:fd:c1:2a:62:46:f8:60:96:cf:6e:01:6f:22:df:
                    13:47:e7:97:ec:05:72:23:a3:62:f8:fa:ef:ac:9c:
                    72:f0:37:cb:2f:37:cf:90:a8:27:51:86:c6:d7:78:
                    08:8f:7e:25:a2:15:70:a2:fb:1c:b6:15:5e:a0:97:
                    8b:81:4c:09:28:8a:27:3b:94:bc:71:db:5b:71:37:
                    9a:2b:16:e0:6f:b5:c9:f5:4b:4f:20:ba:65:cf:af:
                    ad:ad
                Exponent: 65537 (0x10001)
        X509v3 extensions:
            X509v3 Key Usage: 
                Digital Signature, Key Encipherment
            X509v3 Basic Constraints: 
                CA:FALSE
            Netscape Cert Type: 
                SSL Server
            Netscape Comment: 
                OpenSSL Generated Server Certificate
            X509v3 Subject Key Identifier: 
                E5:25:6D:3E:AF:0D:DD:3F:4C:F2:45:19:39:D5:14:DB:7E:9C:C0:AD
            X509v3 Authority Key Identifier: 
                keyid:F4:A7:C0:CC:91:46:AF:64:F3:91:F2:27:F8:C8:B2:6F:8A:87:32:73
                DirName:/C=DE/ST=Hessen/O=privacyidea/CN=CA001
                serial:FB:C8:EB:AC:83:CD:12:07

            X509v3 Extended Key Usage: 
                TLS Web Server Authentication
    Signature Algorithm: sha256WithRSAEncryption
         5e:2c:30:24:a9:ca:6a:bc:81:ae:3e:9a:24:1c:19:9e:29:f5:
         63:43:95:f3:59:44:41:d6:27:b3:07:64:5f:44:b3:c0:16:80:
         58:4a:66:db:a0:d1:27:3d:cb:1d:82:31:8d:e0:b6:1f:47:d9:
         9e:19:f8:96:84:b7:93:6d:f7:f2:81:90:8e:db:7f:c5:32:8b:
         a3:24:32:f6:89:81:e4:c7:fd:34:6d:f5:a1:52:76:8a:c9:17:
         6e:6f:ac:ad:d4:0e:10:86:e3:ce:65:ff:5c:dc:bd:8f:2e:82:
         73:6a:06:c5:97:38:9a:d5:ed:ec:e0:51:ee:68:c7:7f:9f:d0:
         6f:2a:05:9a:27:65:b5:f1:56:80:c1:5d:0f:e7:5c:ab:95:12:
         47:a3:e4:ad:75:ae:ee:a9:51:31:c3:03:ce:50:de:f5:75:5c:
         35:59:39:93:53:8b:64:8e:19:fb:39:a5:4c:d0:81:4e:08:f7:
         81:58:5e:dd:a3:b7:84:e8:2d:db:13:69:04:09:05:ed:0d:6d:
         d9:ee:83:75:60:e4:12:d6:1b:b8:fd:3d:ec:97:28:ef:06:89:
         33:8d:bb:8c:e8:c8:f1:c7:9c:73:46:b3:78:c4:bf:f5:22:ec:
         9f:4c:ad:18:31:04:27:f9:f3:89:3d:76:01:f2:f8:54:d0:c7:
         03:2c:37:e2
-----BEGIN CERTIFICATE-----
MIIECTCCAvGgAwIBAgIEEAAA1TANBgkqhkiG9w0BAQsFADBEMQswCQYDVQQGEwJE
RTEPMA0GA1UECAwGSGVzc2VuMRQwEgYDVQQKDAtwcml2YWN5aWRlYTEOMAwGA1UE
AwwFQ0EwMDEwHhcNMTkwMTI5MTQzNDI4WhcNMjEwMjE3MTQzNDI4WjA3MRMwEQYD
VQQDDApTdGV2ZSBUZXN0MSAwHgYJKoZIhvcNAQkBFhFzdGV2ZUBvcGVuc3NsLm9y
ZzCCASIwDQYJKoZIhvcNAQEBBQADggEPADCCAQoCggEBANKBiSBRSA9z9BEyJNUf
HP1c9bbmxfBSgdzSr2ZKfJMxYVyv0W0GcANgfHIMiN1JzZ4CbNJa11MP89q+aWS1
DwwA47NQR6Ozm7oTUNZYWkurOeARygonZwN4ImZtkh4bXEmu5mvRjjudBtPGrE1T
QxCr6JbBh4KXmY8g05kSNzGE4Yr/KQNfIpA+f5vgIMGt3K5MORoxlhcCjLLZtA0g
Ept9hlT9M/3BKmJG+GCWz24BbyLfE0fnl+wFciOjYvj676yccvA3yy83z5CoJ1GG
xtd4CI9+JaIVcKL7HLYVXqCXi4FMCSiKJzuUvHHbW3E3misW4G+1yfVLTyC6Zc+v
ra0CAwEAAaOCAQ4wggEKMAsGA1UdDwQEAwIFoDAJBgNVHRMEAjAAMBEGCWCGSAGG
+EIBAQQEAwIGQDAzBglghkgBhvhCAQ0EJhYkT3BlblNTTCBHZW5lcmF0ZWQgU2Vy
dmVyIENlcnRpZmljYXRlMB0GA1UdDgQWBBTlJW0+rw3dP0zyRRk51RTbfpzArTB0
BgNVHSMEbTBrgBT0p8DMkUavZPOR8if4yLJviocyc6FIpEYwRDELMAkGA1UEBhMC
REUxDzANBgNVBAgMBkhlc3NlbjEUMBIGA1UECgwLcHJpdmFjeWlkZWExDjAMBgNV
BAMMBUNBMDAxggkA+8jrrIPNEgcwEwYDVR0lBAwwCgYIKwYBBQUHAwEwDQYJKoZI
hvcNAQELBQADggEBAF4sMCSpymq8ga4+miQcGZ4p9WNDlfNZREHWJ7MHZF9Es8AW
gFhKZtug0Sc9yx2CMY3gth9H2Z4Z+JaEt5Nt9/KBkI7bf8Uyi6MkMvaJgeTH/TRt
9aFSdorJF25vrK3UDhCG485l/1zcvY8ugnNqBsWXOJrV7ezgUe5ox3+f0G8qBZon
ZbXxVoDBXQ/nXKuVEkej5K11ru6pUTHDA85Q3vV1XDVZOZNTi2SOGfs5pUzQgU4I
94FYXt2jt4ToLdsTaQQJBe0Nbdnug3Vg5BLWG7j9PeyXKO8GiTONu4zoyPHHnHNG
s3jEv/Ui7J9MrRgxBCf584k9dgHy+FTQxwMsN+I=
-----END CERTIFICATE-----
