Certificate:
    Data:
        Version: 3 (0x2)
        Serial Number: 268435689 (0x100000e9)
    Signature Algorithm: sha256WithRSAEncryption
        Issuer: C=DE, ST=Hessen, O=privacyidea, CN=CA001
        Validity
            Not Before: Jan  9 19:45:42 2019 GMT
            Not After : Jan  9 19:45:42 2020 GMT
        Subject: CN=Steve Test/emailAddress=steve@openssl.org
        Subject Public Key Info:
            Public Key Algorithm: rsaEncryption
                Public-Key: (2048 bit)
                Modulus:
                    00:d2:81:89:20:51:48:0f:73:f4:11:32:24:d5:1f:
                    1c:fd:5c:f5:b6:e6:c5:f0:52:81:dc:d2:af:66:4a:
                    7c:93:31:61:5c:af:d1:6d:06:70:03:60:7c:72:0c:
                    88:dd:49:cd:9e:02:6c:d2:5a:d7:53:0f:f3:da:be:
                    69:64:b5:0f:0c:00:e3:b3:50:47:a3:b3:9b:ba:13:
                    50:d6:58:5a:4b:ab:39:e0:11:ca:0a:27:67:03:78:
                    22:66:6d:92:1e:1b:5c:49:ae:e6:6b:d1:8e:3b:9d:
                    06:d3:c6:ac:4d:53:43:10:ab:e8:96:c1:87:82:97:
                    99:8f:20:d3:99:12:37:31:84:e1:8a:ff:29:03:5f:
                    22:90:3e:7f:9b:e0:20:c1:ad:dc:ae:4c:39:1a:31:
                    96:17:02:8c:b2:d9:b4:0d:20:12:9b:7d:86:54:fd:
                    33:fd:c1:2a:62:46:f8:60:96:cf:6e:01:6f:22:df:
                    13:47:e7:97:ec:05:72:23:a3:62:f8:fa:ef:ac:9c:
                    72:f0:37:cb:2f:37:cf:90:a8:27:51:86:c6:d7:78:
                    08:8f:7e:25:a2:15:70:a2:fb:1c:b6:15:5e:a0:97:
                    8b:81:4c:09:28:8a:27:3b:94:bc:71:db:5b:71:37:
                    9a:2b:16:e0:6f:b5:c9:f5:4b:4f:20:ba:65:cf:af:
                    ad:ad
                Exponent: 65537 (0x10001)
        X509v3 extensions:
            X509v3 Key Usage: 
                Digital Signature, Key Encipherment
            X509v3 Basic Constraints: 
                CA:FALSE
            Netscape Cert Type: 
                SSL Server
            Netscape Comment: 
                OpenSSL Generated Server Certificate
            X509v3 Subject Key Identifier: 
                E5:25:6D:3E:AF:0D:DD:3F:4C:F2:45:19:39:D5:14:DB:7E:9C:C0:AD
            X509v3 Authority Key Identifier: 
                keyid:F4:A7:C0:CC:91:46:AF:64:F3:91:F2:27:F8:C8:B2:6F:8A:87:32:73
                DirName:/C=DE/ST=Hessen/O=privacyidea/CN=CA001
                serial:FB:C8:EB:AC:83:CD:12:07

            X509v3 Extended Key Usage: 
                TLS Web Server Authentication
    Signature Algorithm: sha256WithRSAEncryption
         86:00:55:78:53:cc:5c:bc:75:2f:bf:7e:a1:83:f0:2e:c2:b9:
         be:f9:24:0c:6c:2c:d6:53:1b:59:d4:6a:cd:74:cb:d0:f8:d9:
         3b:e8:f9:f4:52:cf:f0:60:9a:c7:ff:99:73:81:5b:4c:35:8f:
         29:08:17:15:95:80:92:50:e2:b4:1b:c2:06:71:88:4b:41:66:
         93:d8:b4:ab:49:bb:04:15:9b:53:d9:51:46:a1:91:69:c5:09:
         e4:08:48:c8:e2:67:ca:a3:cd:cc:95:c0:5c:1e:65:f0:dc:69:
         b4:8b:11:79:28:bd:a9:c1:41:c2:6b:08:f3:e4:ee:c5:99:06:
         a5:34:4d:49:9f:41:86:c2:7d:b4:12:ff:ff:cd:e0:7e:40:d4:
         7e:12:8f:27:19:6a:20:92:c3:79:99:00:70:ba:aa:b2:4d:c6:
         ee:5b:48:88:af:65:c0:fc:75:89:54:4c:4d:29:b8:b1:3f:ce:
         3d:83:bf:26:7a:09:6d:83:ea:3e:0c:f9:e7:28:e5:32:90:01:
         cb:b9:3b:12:7c:64:e1:fb:49:74:f7:89:3c:51:d5:4b:c6:23:
         08:b9:6b:09:b2:74:1d:4f:f0:bc:7f:98:1a:5a:a0:a5:27:fb:
         42:d6:28:6d:77:73:17:ab:20:4e:35:1c:43:ac:7c:55:84:07:
         71:7d:b7:f6
-----BEGIN CERTIFICATE-----
MIIECTCCAvGgAwIBAgIEEAAA6TANBgkqhkiG9w0BAQsFADBEMQswCQYDVQQGEwJE
RTEPMA0GA1UECAwGSGVzc2VuMRQwEgYDVQQKDAtwcml2YWN5aWRlYTEOMAwGA1UE
AwwFQ0EwMDEwHhcNMTkwMTA5MTk0NTQyWhcNMjAwMTA5MTk0NTQyWjA3MRMwEQYD
VQQDDApTdGV2ZSBUZXN0MSAwHgYJKoZIhvcNAQkBFhFzdGV2ZUBvcGVuc3NsLm9y
ZzCCASIwDQYJKoZIhvcNAQEBBQADggEPADCCAQoCggEBANKBiSBRSA9z9BEyJNUf
HP1c9bbmxfBSgdzSr2ZKfJMxYVyv0W0GcANgfHIMiN1JzZ4CbNJa11MP89q+aWS1
DwwA47NQR6Ozm7oTUNZYWkurOeARygonZwN4ImZtkh4bXEmu5mvRjjudBtPGrE1T
QxCr6JbBh4KXmY8g05kSNzGE4Yr/KQNfIpA+f5vgIMGt3K5MORoxlhcCjLLZtA0g
Ept9hlT9M/3BKmJG+GCWz24BbyLfE0fnl+wFciOjYvj676yccvA3yy83z5CoJ1GG
xtd4CI9+JaIVcKL7HLYVXqCXi4FMCSiKJzuUvHHbW3E3misW4G+1yfVLTyC6Zc+v
ra0CAwEAAaOCAQ4wggEKMAsGA1UdDwQEAwIFoDAJBgNVHRMEAjAAMBEGCWCGSAGG
+EIBAQQEAwIGQDAzBglghkgBhvhCAQ0EJhYkT3BlblNTTCBHZW5lcmF0ZWQgU2Vy
dmVyIENlcnRpZmljYXRlMB0GA1UdDgQWBBTlJW0+rw3dP0zyRRk51RTbfpzArTB0
BgNVHSMEbTBrgBT0p8DMkUavZPOR8if4yLJviocyc6FIpEYwRDELMAkGA1UEBhMC
REUxDzANBgNVBAgMBkhlc3NlbjEUMBIGA1UECgwLcHJpdmFjeWlkZWExDjAMBgNV
BAMMBUNBMDAxggkA+8jrrIPNEgcwEwYDVR0lBAwwCgYIKwYBBQUHAwEwDQYJKoZI
hvcNAQELBQADggEBAIYAVXhTzFy8dS+/fqGD8C7Cub75JAxsLNZTG1nUas10y9D4
2Tvo+fRSz/Bgmsf/mXOBW0w1jykIFxWVgJJQ4rQbwgZxiEtBZpPYtKtJuwQVm1PZ
UUahkWnFCeQISMjiZ8qjzcyVwFweZfDcabSLEXkovanBQcJrCPPk7sWZBqU0TUmf
QYbCfbQS///N4H5A1H4SjycZaiCSw3mZAHC6qrJNxu5bSIivZcD8dYlUTE0puLE/
zj2DvyZ6CW2D6j4M+eco5TKQAcu5OxJ8ZOH7SXT3iTxR1UvGIwi5awmydB1P8Lx/
mBpaoKUn+0LWKG13cxerIE41HEOsfFWEB3F9t/Y=
-----END CERTIFICATE-----
