Certificate:
    Data:
        Version: 3 (0x2)
        Serial Number: 268435690 (0x100000ea)
    Signature Algorithm: sha256WithRSAEncryption
        Issuer: C=DE, ST=Hessen, O=privacyidea, CN=CA001
        Validity
            Not Before: Jan  9 19:45:42 2019 GMT
            Not After : Jan 28 19:45:42 2021 GMT
        Subject: CN=Steve Test/emailAddress=steve@openssl.org
        Subject Public Key Info:
            Public Key Algorithm: rsaEncryption
                Public-Key: (2048 bit)
                Modulus:
                    00:d2:81:89:20:51:48:0f:73:f4:11:32:24:d5:1f:
                    1c:fd:5c:f5:b6:e6:c5:f0:52:81:dc:d2:af:66:4a:
                    7c:93:31:61:5c:af:d1:6d:06:70:03:60:7c:72:0c:
                    88:dd:49:cd:9e:02:6c:d2:5a:d7:53:0f:f3:da:be:
                    69:64:b5:0f:0c:00:e3:b3:50:47:a3:b3:9b:ba:13:
                    50:d6:58:5a:4b:ab:39:e0:11:ca:0a:27:67:03:78:
                    22:66:6d:92:1e:1b:5c:49:ae:e6:6b:d1:8e:3b:9d:
                    06:d3:c6:ac:4d:53:43:10:ab:e8:96:c1:87:82:97:
                    99:8f:20:d3:99:12:37:31:84:e1:8a:ff:29:03:5f:
                    22:90:3e:7f:9b:e0:20:c1:ad:dc:ae:4c:39:1a:31:
                    96:17:02:8c:b2:d9:b4:0d:20:12:9b:7d:86:54:fd:
                    33:fd:c1:2a:62:46:f8:60:96:cf:6e:01:6f:22:df:
                    13:47:e7:97:ec:05:72:23:a3:62:f8:fa:ef:ac:9c:
                    72:f0:37:cb:2f:37:cf:90:a8:27:51:86:c6:d7:78:
                    08:8f:7e:25:a2:15:70:a2:fb:1c:b6:15:5e:a0:97:
                    8b:81:4c:09:28:8a:27:3b:94:bc:71:db:5b:71:37:
                    9a:2b:16:e0:6f:b5:c9:f5:4b:4f:20:ba:65:cf:af:
                    ad:ad
                Exponent: 65537 (0x10001)
        X509v3 extensions:
            X509v3 Key Usage: 
                Digital Signature, Key Encipherment
            X509v3 Basic Constraints: 
                CA:FALSE
            Netscape Cert Type: 
                SSL Server
            Netscape Comment: 
                OpenSSL Generated Server Certificate
            X509v3 Subject Key Identifier: 
                E5:25:6D:3E:AF:0D:DD:3F:4C:F2:45:19:39:D5:14:DB:7E:9C:C0:AD
            X509v3 Authority Key Identifier: 
                keyid:F4:A7:C0:CC:91:46:AF:64:F3:91:F2:27:F8:C8:B2:6F:8A:87:32:73
                DirName:/C=DE/ST=Hessen/O=privacyidea/CN=CA001
                serial:FB:C8:EB:AC:83:CD:12:07

            X509v3 Extended Key Usage: 
                TLS Web Server Authentication
    Signature Algorithm: sha256WithRSAEncryption
         0f:58:4d:de:fa:a6:f6:c4:b3:3d:67:a2:8b:d4:0f:65:e7:47:
         d9:82:3e:eb:e0:44:2d:b6:23:18:97:8c:03:3b:ba:6b:f8:d5:
         12:23:71:e9:d1:fe:cd:8a:ce:e0:63:df:df:ba:9e:55:b5:23:
         6e:6f:c1:53:0b:58:33:f5:d1:21:3d:71:ec:26:e2:04:38:fc:
         b9:d1:b3:97:10:b2:2c:c9:3f:9c:42:44:ec:21:8b:5f:17:10:
         d6:82:f1:25:e1:34:3a:ed:c6:49:cc:4e:b7:b6:09:c0:ff:57:
         36:1b:80:22:de:7f:1e:f3:8f:6c:01:5e:3b:d0:77:1d:37:df:
         1b:13:b1:fc:d3:a9:37:98:bb:6a:0a:15:6c:f4:a0:65:34:a1:
         fc:17:bc:2b:9f:bb:2c:8b:66:dd:62:6f:70:1c:f4:40:25:85:
         11:73:19:42:58:f7:33:c7:73:0f:c8:4d:f5:c3:56:d1:e0:dd:
         42:94:f8:1c:a0:4c:6a:bb:2d:22:6b:95:f8:0a:0d:93:75:e5:
         57:01:4e:d1:03:90:b5:04:ad:ba:3f:de:20:0e:04:6b:ee:6b:
         5b:24:59:3a:cb:1c:cc:a0:88:54:4b:f9:4f:02:1b:11:4d:ea:
         42:e5:79:97:de:f3:e8:07:f7:40:87:10:ec:a9:46:92:da:f3:
         0e:a9:02:2b
-----BEGIN CERTIFICATE-----
MIIECTCCAvGgAwIBAgIEEAAA6jANBgkqhkiG9w0BAQsFADBEMQswCQYDVQQGEwJE
RTEPMA0GA1UECAwGSGVzc2VuMRQwEgYDVQQKDAtwcml2YWN5aWRlYTEOMAwGA1UE
AwwFQ0EwMDEwHhcNMTkwMTA5MTk0NTQyWhcNMjEwMTI4MTk0NTQyWjA3MRMwEQYD
VQQDDApTdGV2ZSBUZXN0MSAwHgYJKoZIhvcNAQkBFhFzdGV2ZUBvcGVuc3NsLm9y
ZzCCASIwDQYJKoZIhvcNAQEBBQADggEPADCCAQoCggEBANKBiSBRSA9z9BEyJNUf
HP1c9bbmxfBSgdzSr2ZKfJMxYVyv0W0GcANgfHIMiN1JzZ4CbNJa11MP89q+aWS1
DwwA47NQR6Ozm7oTUNZYWkurOeARygonZwN4ImZtkh4bXEmu5mvRjjudBtPGrE1T
QxCr6JbBh4KXmY8g05kSNzGE4Yr/KQNfIpA+f5vgIMGt3K5MORoxlhcCjLLZtA0g
Ept9hlT9M/3BKmJG+GCWz24BbyLfE0fnl+wFciOjYvj676yccvA3yy83z5CoJ1GG
xtd4CI9+JaIVcKL7HLYVXqCXi4FMCSiKJzuUvHHbW3E3misW4G+1yfVLTyC6Zc+v
ra0CAwEAAaOCAQ4wggEKMAsGA1UdDwQEAwIFoDAJBgNVHRMEAjAAMBEGCWCGSAGG
+EIBAQQEAwIGQDAzBglghkgBhvhCAQ0EJhYkT3BlblNTTCBHZW5lcmF0ZWQgU2Vy
dmVyIENlcnRpZmljYXRlMB0GA1UdDgQWBBTlJW0+rw3dP0zyRRk51RTbfpzArTB0
BgNVHSMEbTBrgBT0p8DMkUavZPOR8if4yLJviocyc6FIpEYwRDELMAkGA1UEBhMC
REUxDzANBgNVBAgMBkhlc3NlbjEUMBIGA1UECgwLcHJpdmFjeWlkZWExDjAMBgNV
BAMMBUNBMDAxggkA+8jrrIPNEgcwEwYDVR0lBAwwCgYIKwYBBQUHAwEwDQYJKoZI
hvcNAQELBQADggEBAA9YTd76pvbEsz1noovUD2XnR9mCPuvgRC22IxiXjAM7umv4
1RIjcenR/s2KzuBj39+6nlW1I25vwVMLWDP10SE9cewm4gQ4/LnRs5cQsizJP5xC
ROwhi18XENaC8SXhNDrtxknMTre2CcD/VzYbgCLefx7zj2wBXjvQdx033xsTsfzT
qTeYu2oKFWz0oGU0ofwXvCufuyyLZt1ib3Ac9EAlhRFzGUJY9zPHcw/ITfXDVtHg
3UKU+BygTGq7LSJrlfgKDZN15VcBTtEDkLUErbo/3iAOBGvua1skWTrLHMygiFRL
+U8CGxFN6kLleZfe8+gH90CHEOypRpLa8w6pAis=
-----END CERTIFICATE-----
