Certificate:
    Data:
        Version: 3 (0x2)
        Serial Number: 268435676 (0x100000dc)
    Signature Algorithm: sha256WithRSAEncryption
        Issuer: C=DE, ST=Hessen, O=privacyidea, CN=CA001
        Validity
            Not Before: Jan 29 14:46:14 2019 GMT
            Not After : Jan 29 14:46:14 2020 GMT
        Subject: OU=realm1, CN=cornelius/emailAddress=user@localhost.localdomain
        Subject Public Key Info:
            Public Key Algorithm: rsaEncryption
                Public-Key: (2048 bit)
                Modulus:
                    00:cf:88:25:33:3b:f0:ce:86:70:5c:81:fc:9b:71:
                    94:87:72:78:85:b7:9f:66:39:60:1a:23:3e:75:a3:
                    07:c4:f4:81:72:97:75:29:cf:f3:2f:4c:28:09:0c:
                    9d:ca:e4:57:16:ab:84:d1:18:73:00:12:88:9b:10:
                    8c:5b:1d:4f:8b:db:8d:d4:38:0b:cd:96:4b:20:4c:
                    94:c7:2d:b4:e0:a8:47:13:41:b1:d9:00:fa:4e:e5:
                    f9:78:34:e4:3f:7e:9b:92:eb:68:6d:86:e5:35:bd:
                    39:09:67:d8:7b:4f:86:51:c8:c8:65:d8:4b:64:79:
                    3f:ce:e4:bc:0f:ec:33:34:78:17:41:0d:76:6a:81:
                    19:3f:4e:5b:39:22:1b:7d:90:56:38:a5:fb:b6:43:
                    cc:93:b9:e8:ed:9e:40:9b:59:f6:50:38:39:52:52:
                    b8:11:36:9f:9a:c9:b5:e0:4b:29:ca:c8:cc:a4:13:
                    4f:b0:43:7b:49:75:57:45:73:09:d7:a5:80:a7:b0:
                    d4:1a:99:9b:f0:dc:cc:47:73:51:b1:00:76:ad:c7:
                    45:04:2e:db:85:18:cf:f9:00:33:7c:7e:e1:2a:c1:
                    a3:85:f1:5a:64:c3:25:db:63:81:8e:2c:e6:c7:79:
                    12:95:b0:bc:02:9e:7a:64:74:14:11:d8:66:80:14:
                    62:67
                Exponent: 65537 (0x10001)
        X509v3 extensions:
            X509v3 Key Usage: 
                Digital Signature, Key Encipherment
            X509v3 Basic Constraints: 
                CA:FALSE
            Netscape Cert Type: 
                SSL Server
            Netscape Comment: 
                OpenSSL Generated Server Certificate
            X509v3 Subject Key Identifier: 
                7B:2E:BB:E2:70:4E:DF:CB:09:1A:3B:88:F6:8E:E3:70:BB:3C:1B:77
            X509v3 Authority Key Identifier: 
                keyid:F4:A7:C0:CC:91:46:AF:64:F3:91:F2:27:F8:C8:B2:6F:8A:87:32:73
                DirName:/C=DE/ST=Hessen/O=privacyidea/CN=CA001
                serial:FB:C8:EB:AC:83:CD:12:07

            X509v3 Extended Key Usage: 
                TLS Web Server Authentication
    Signature Algorithm: sha256WithRSAEncryption
         82:46:73:01:b5:16:f9:bc:d6:ea:d1:05:83:af:ff:ec:2a:58:
         cc:b8:68:55:e3:f1:50:9c:9c:bd:ce:67:b9:39:03:70:8b:ec:
         50:d2:c5:ab:b8:f7:8d:e2:a3:60:07:45:32:85:48:e7:f5:a8:
         7d:eb:7c:1c:b4:7e:be:26:d8:64:ce:f1:a3:45:ef:1d:c5:fa:
         ae:38:77:0d:33:11:e4:4c:82:4b:fe:c4:d3:76:14:48:6b:4f:
         14:43:4f:e5:6b:41:40:c3:f0:c1:96:79:d2:0e:56:ff:0e:7c:
         e8:81:f1:23:19:20:07:f4:61:94:82:12:d8:2d:51:20:4d:e4:
         75:b9:e4:8c:12:8b:f2:20:0e:af:b3:ae:48:18:2d:47:71:84:
         04:ee:b0:20:e5:12:26:a2:c5:96:0d:12:4c:cf:f8:dd:ca:68:
         9b:f3:51:f8:79:3b:1f:76:20:a7:aa:6b:ca:52:7c:4f:c7:27:
         30:f9:eb:ba:d5:9f:66:b6:13:b6:2c:f7:8a:24:08:f2:58:28:
         64:fc:eb:3e:e0:c9:70:ca:d0:8a:78:f2:99:a9:fb:b9:2c:b0:
         69:98:80:7f:10:1f:db:6e:97:39:70:83:47:e3:76:63:33:1b:
         3b:af:d8:11:ce:15:97:e7:24:d3:8a:7e:ab:ba:e2:40:42:cc:
         38:10:c6:9b
-----BEGIN CERTIFICATE-----
MIIEIjCCAwqgAwIBAgIEEAAA3DANBgkqhkiG9w0BAQsFADBEMQswCQYDVQQGEwJE
RTEPMA0GA1UECAwGSGVzc2VuMRQwEgYDVQQKDAtwcml2YWN5aWRlYTEOMAwGA1UE
AwwFQ0EwMDEwHhcNMTkwMTI5MTQ0NjE0WhcNMjAwMTI5MTQ0NjE0WjBQMQ8wDQYD
VQQLDAZyZWFsbTExEjAQBgNVBAMMCWNvcm5lbGl1czEpMCcGCSqGSIb3DQEJARYa
dXNlckBsb2NhbGhvc3QubG9jYWxkb21haW4wggEiMA0GCSqGSIb3DQEBAQUAA4IB
DwAwggEKAoIBAQDPiCUzO/DOhnBcgfybcZSHcniFt59mOWAaIz51owfE9IFyl3Up
z/MvTCgJDJ3K5FcWq4TRGHMAEoibEIxbHU+L243UOAvNlksgTJTHLbTgqEcTQbHZ
APpO5fl4NOQ/fpuS62hthuU1vTkJZ9h7T4ZRyMhl2EtkeT/O5LwP7DM0eBdBDXZq
gRk/Tls5Iht9kFY4pfu2Q8yTuejtnkCbWfZQODlSUrgRNp+aybXgSynKyMykE0+w
Q3tJdVdFcwnXpYCnsNQamZvw3MxHc1GxAHatx0UELtuFGM/5ADN8fuEqwaOF8Vpk
wyXbY4GOLObHeRKVsLwCnnpkdBQR2GaAFGJnAgMBAAGjggEOMIIBCjALBgNVHQ8E
BAMCBaAwCQYDVR0TBAIwADARBglghkgBhvhCAQEEBAMCBkAwMwYJYIZIAYb4QgEN
BCYWJE9wZW5TU0wgR2VuZXJhdGVkIFNlcnZlciBDZXJ0aWZpY2F0ZTAdBgNVHQ4E
FgQUey674nBO38sJGjuI9o7jcLs8G3cwdAYDVR0jBG0wa4AU9KfAzJFGr2TzkfIn
+Miyb4qHMnOhSKRGMEQxCzAJBgNVBAYTAkRFMQ8wDQYDVQQIDAZIZXNzZW4xFDAS
BgNVBAoMC3ByaXZhY3lpZGVhMQ4wDAYDVQQDDAVDQTAwMYIJAPvI66yDzRIHMBMG
A1UdJQQMMAoGCCsGAQUFBwMBMA0GCSqGSIb3DQEBCwUAA4IBAQCCRnMBtRb5vNbq
0QWDr//sKljMuGhV4/FQnJy9zme5OQNwi+xQ0sWruPeN4qNgB0UyhUjn9ah963wc
tH6+JthkzvGjRe8dxfquOHcNMxHkTIJL/sTTdhRIa08UQ0/la0FAw/DBlnnSDlb/
DnzogfEjGSAH9GGUghLYLVEgTeR1ueSMEovyIA6vs65IGC1HcYQE7rAg5RImosWW
DRJMz/jdymib81H4eTsfdiCnqmvKUnxPxycw+eu61Z9mthO2LPeKJAjyWChk/Os+
4MlwytCKePKZqfu5LLBpmIB/EB/bbpc5cINH43ZjMxs7r9gRzhWX5yTTin6ruuJA
Qsw4EMab
-----END CERTIFICATE-----
