Certificate:
    Data:
        Version: 3 (0x2)
        Serial Number: 0 (0x0)
    Signature Algorithm: sha1WithRSAEncryption
        Issuer: C=AU, ST=Some-State, O=Internet Widgits Pty Ltd, CN=x-mroy
        Validity
            Not Before: Aug 12 05:36:20 2018 GMT
            Not After : Aug 12 05:36:20 2019 GMT
        Subject: C=AU, ST=Some-State, O=Internet Widgits Pty Ltd, CN=x-mroy
        Subject Public Key Info:
            Public Key Algorithm: rsaEncryption
                Public-Key: (2048 bit)
                Modulus:
                    00:cd:ff:07:35:6f:2a:15:49:b1:0a:83:51:d2:04:
                    5a:cb:a0:7b:54:58:89:95:68:d5:49:26:e8:33:36:
                    17:08:d2:b8:0e:c1:84:80:45:9f:89:88:1d:29:1c:
                    9d:d9:b2:25:33:1e:13:24:20:5e:be:6f:53:9a:83:
                    ee:17:05:dd:29:02:05:78:2d:f7:ec:bd:46:76:b5:
                    65:25:55:b9:31:29:a2:f7:eb:37:96:c7:38:fe:4a:
                    1a:91:ef:ab:81:36:3c:58:48:28:74:97:b4:7f:65:
                    38:82:1a:60:6a:fa:05:94:8d:bc:96:b9:3c:14:a2:
                    15:5a:5c:77:b7:c3:02:20:73:dc:5a:94:68:96:37:
                    a4:92:31:9a:55:96:48:38:3f:90:74:40:a1:28:53:
                    d6:2f:23:ab:07:3b:43:2d:4e:a5:58:03:34:d7:b4:
                    df:11:80:bd:0f:9e:06:c5:58:de:df:7e:19:4f:9b:
                    99:16:46:91:dd:38:12:c8:e2:b3:b3:af:33:7a:05:
                    36:2a:d3:70:02:54:cf:bd:d0:b6:97:15:73:81:d9:
                    2f:7e:d0:90:41:46:62:8f:e2:d7:2d:4e:48:04:d1:
                    d7:7f:64:b3:8a:28:57:6f:00:fd:dd:78:b4:63:bc:
                    0e:87:e1:50:eb:da:1c:65:e4:6f:79:9c:22:69:d3:
                    51:e9
                Exponent: 65537 (0x10001)
        X509v3 extensions:
            X509v3 Basic Constraints: 
                CA:FALSE
            Netscape Comment: 
                OpenSSL Generated Certificate
            X509v3 Subject Key Identifier: 
                99:4F:9F:9E:79:68:D8:BC:45:24:18:4B:D8:67:E1:B0:68:71:F9:C9
            X509v3 Authority Key Identifier: 
                keyid:3D:C2:85:89:77:2D:9D:E4:B1:4E:C1:57:D6:B8:91:DC:DE:A0:43:92

    Signature Algorithm: sha1WithRSAEncryption
         4c:ea:f7:73:1c:55:c5:dd:83:47:d9:9c:73:a4:4a:b7:a5:84:
         6a:80:c8:06:0c:2c:69:7c:2b:82:8e:4f:a7:31:b8:b4:83:80:
         01:80:1b:d2:6e:8c:91:2a:c3:87:f6:6a:75:49:4e:ce:aa:7c:
         2e:db:90:37:b2:f6:08:65:47:fd:aa:38:f6:c7:e6:9f:39:cf:
         22:5e:85:22:8c:f8:b2:18:b0:8b:24:d3:2b:3e:ba:63:c8:2d:
         be:6f:96:3c:69:34:14:3b:7e:a4:2a:b5:3b:73:2f:5d:ef:f3:
         f3:80:59:5e:f3:7a:5d:9d:cf:fa:bc:59:58:45:0d:62:70:34:
         56:36:f0:53:1c:4b:96:9c:3e:28:d8:84:b5:94:a0:56:d0:3f:
         79:5a:a7:74:bf:62:e6:ba:bd:c5:b2:48:1b:b2:da:e1:f5:08:
         f5:8f:22:9e:c1:77:4b:bb:56:e5:97:b2:b3:00:3c:28:eb:98:
         37:ba:a0:45:52:bb:fa:d1:d8:9b:31:58:5b:52:7f:cc:71:12:
         df:5f:8f:ca:34:d0:fe:88:63:32:49:6a:81:10:bb:9e:5b:bd:
         4f:ac:47:0b:86:57:25:82:9c:eb:67:aa:ff:31:65:ba:9f:ae:
         64:04:0a:44:45:6e:0a:a9:76:8a:83:c1:2c:c8:ea:62:16:09:
         9a:4a:99:89
-----BEGIN CERTIFICATE-----
MIIDojCCAoqgAwIBAgIBADANBgkqhkiG9w0BAQUFADBWMQswCQYDVQQGEwJBVTET
MBEGA1UECAwKU29tZS1TdGF0ZTEhMB8GA1UECgwYSW50ZXJuZXQgV2lkZ2l0cyBQ
dHkgTHRkMQ8wDQYDVQQDDAZ4LW1yb3kwHhcNMTgwODEyMDUzNjIwWhcNMTkwODEy
MDUzNjIwWjBWMQswCQYDVQQGEwJBVTETMBEGA1UECAwKU29tZS1TdGF0ZTEhMB8G
A1UECgwYSW50ZXJuZXQgV2lkZ2l0cyBQdHkgTHRkMQ8wDQYDVQQDDAZ4LW1yb3kw
ggEiMA0GCSqGSIb3DQEBAQUAA4IBDwAwggEKAoIBAQDN/wc1byoVSbEKg1HSBFrL
oHtUWImVaNVJJugzNhcI0rgOwYSARZ+JiB0pHJ3ZsiUzHhMkIF6+b1Oag+4XBd0p
AgV4LffsvUZ2tWUlVbkxKaL36zeWxzj+ShqR76uBNjxYSCh0l7R/ZTiCGmBq+gWU
jbyWuTwUohVaXHe3wwIgc9xalGiWN6SSMZpVlkg4P5B0QKEoU9YvI6sHO0MtTqVY
AzTXtN8RgL0PngbFWN7ffhlPm5kWRpHdOBLI4rOzrzN6BTYq03ACVM+90LaXFXOB
2S9+0JBBRmKP4tctTkgE0dd/ZLOKKFdvAP3deLRjvA6H4VDr2hxl5G95nCJp01Hp
AgMBAAGjezB5MAkGA1UdEwQCMAAwLAYJYIZIAYb4QgENBB8WHU9wZW5TU0wgR2Vu
ZXJhdGVkIENlcnRpZmljYXRlMB0GA1UdDgQWBBSZT5+eeWjYvEUkGEvYZ+GwaHH5
yTAfBgNVHSMEGDAWgBQ9woWJdy2d5LFOwVfWuJHc3qBDkjANBgkqhkiG9w0BAQUF
AAOCAQEATOr3cxxVxd2DR9mcc6RKt6WEaoDIBgwsaXwrgo5PpzG4tIOAAYAb0m6M
kSrDh/ZqdUlOzqp8LtuQN7L2CGVH/ao49sfmnznPIl6FIoz4shiwiyTTKz66Y8gt
vm+WPGk0FDt+pCq1O3MvXe/z84BZXvN6XZ3P+rxZWEUNYnA0VjbwUxxLlpw+KNiE
tZSgVtA/eVqndL9i5rq9xbJIG7La4fUI9Y8insF3S7tW5ZeyswA8KOuYN7qgRVK7
+tHYmzFYW1J/zHES31+PyjTQ/ohjMklqgRC7nlu9T6xHC4ZXJYKc62eq/zFlup+u
ZAQKREVuCql2ioPBLMjqYhYJmkqZiQ==
-----END CERTIFICATE-----
