Certificate:
    Data:
        Version: 3 (0x2)
        Serial Number: 268435685 (0x100000e5)
    Signature Algorithm: sha256WithRSAEncryption
        Issuer: C=DE, ST=Hessen, O=privacyidea, CN=CA001
        Validity
            Not Before: Jan  9 19:33:15 2019 GMT
            Not After : Jan  9 19:33:15 2020 GMT
        Subject: OU=realm1, CN=cornelius/emailAddress=user@localhost.localdomain
        Subject Public Key Info:
            Public Key Algorithm: rsaEncryption
                Public-Key: (2048 bit)
                Modulus:
                    00:ca:35:5a:cb:ae:e5:cf:aa:f3:6d:b5:a5:ed:54:
                    7b:2e:96:32:69:e9:ef:a1:62:54:4f:46:c2:05:0a:
                    38:bd:80:26:21:92:04:c7:27:3d:27:e9:91:22:fe:
                    cb:e3:05:7a:2f:cb:c5:3d:17:30:f7:3a:8c:7a:4c:
                    e9:50:05:fc:ab:24:67:e9:a0:a3:ab:2f:91:d1:4e:
                    70:8e:1c:64:77:b7:6d:de:95:c1:aa:6d:db:08:d0:
                    51:5d:87:16:66:8e:36:c0:38:63:19:d4:58:1c:c7:
                    ec:7c:f8:30:83:9e:a6:0f:70:5d:f2:68:c9:b3:08:
                    52:f7:0f:1b:7c:c2:a8:6c:b0:a3:ef:91:39:9f:1b:
                    1a:c0:bc:9c:fc:2e:6c:8d:21:52:b0:68:9f:12:12:
                    c9:04:a3:13:e2:39:73:e0:2c:93:6f:2c:a3:27:75:
                    11:2f:5e:97:de:0d:ce:e3:6c:00:c8:57:1c:f7:6f:
                    a9:ee:54:de:14:32:d8:9c:e9:f7:3e:e7:bd:90:35:
                    f6:a9:1f:e7:5c:e6:27:60:87:da:96:82:7e:72:c6:
                    b9:d5:6c:50:46:bc:88:24:93:0b:07:5a:44:a4:9e:
                    fb:5b:db:4e:37:5b:d5:a3:03:b8:17:78:68:fb:e0:
                    6d:2c:eb:fe:28:33:0b:85:f4:9f:59:1e:16:6c:5c:
                    c8:9f
                Exponent: 65537 (0x10001)
        X509v3 extensions:
            X509v3 Key Usage: 
                Digital Signature, Key Encipherment
            X509v3 Basic Constraints: 
                CA:FALSE
            Netscape Cert Type: 
                SSL Server
            Netscape Comment: 
                OpenSSL Generated Server Certificate
            X509v3 Subject Key Identifier: 
                1D:61:00:CF:BE:19:9B:1B:DA:77:07:7E:75:48:D6:F9:2E:66:A3:33
            X509v3 Authority Key Identifier: 
                keyid:F4:A7:C0:CC:91:46:AF:64:F3:91:F2:27:F8:C8:B2:6F:8A:87:32:73
                DirName:/C=DE/ST=Hessen/O=privacyidea/CN=CA001
                serial:FB:C8:EB:AC:83:CD:12:07

            X509v3 Extended Key Usage: 
                TLS Web Server Authentication
    Signature Algorithm: sha256WithRSAEncryption
         03:d6:93:24:b4:c5:e2:ed:dd:16:f1:a1:a7:36:53:9c:e4:2e:
         4b:d1:fc:83:02:c8:e8:52:96:a9:c8:ea:e7:ed:ae:c6:01:c9:
         bb:07:cc:9e:68:75:cd:53:45:3a:6a:37:4a:58:31:ec:21:88:
         6d:5a:ea:06:f5:18:68:58:d9:ac:14:3d:2f:0a:af:16:56:30:
         fe:1f:96:42:bd:80:cf:0b:0f:d5:1b:3f:6b:b8:c4:13:65:d3:
         45:03:d5:07:5a:5f:ca:35:97:5b:3f:89:d6:ee:a1:d6:f9:f5:
         a9:18:69:fc:f7:ae:7a:13:9e:f0:6a:e2:42:38:4d:60:2a:46:
         72:77:01:d0:00:1d:f7:6a:19:02:58:d3:6b:de:e0:a0:6f:2d:
         60:b1:39:5a:b5:3a:65:c0:cb:88:e2:85:7c:28:61:0c:72:b4:
         a9:9c:34:c0:66:25:29:1f:ef:66:a5:e0:9c:e6:8f:b5:45:f9:
         ed:93:ca:73:14:2d:67:5f:b6:cf:3e:2a:93:2e:6b:e9:09:6d:
         8f:ff:a4:f3:bf:e8:26:d4:0e:be:f2:9d:94:81:8a:8a:7d:19:
         0f:97:73:41:04:35:b7:b1:3a:1a:b0:01:94:40:0d:54:5d:c3:
         4f:d8:6f:75:21:ee:02:c6:5d:66:8e:9e:52:a9:92:d6:a9:3b:
         2a:a1:6b:d4
-----BEGIN CERTIFICATE-----
MIIEIjCCAwqgAwIBAgIEEAAA5TANBgkqhkiG9w0BAQsFADBEMQswCQYDVQQGEwJE
RTEPMA0GA1UECAwGSGVzc2VuMRQwEgYDVQQKDAtwcml2YWN5aWRlYTEOMAwGA1UE
AwwFQ0EwMDEwHhcNMTkwMTA5MTkzMzE1WhcNMjAwMTA5MTkzMzE1WjBQMQ8wDQYD
VQQLDAZyZWFsbTExEjAQBgNVBAMMCWNvcm5lbGl1czEpMCcGCSqGSIb3DQEJARYa
dXNlckBsb2NhbGhvc3QubG9jYWxkb21haW4wggEiMA0GCSqGSIb3DQEBAQUAA4IB
DwAwggEKAoIBAQDKNVrLruXPqvNttaXtVHsuljJp6e+hYlRPRsIFCji9gCYhkgTH
Jz0n6ZEi/svjBXovy8U9FzD3Oox6TOlQBfyrJGfpoKOrL5HRTnCOHGR3t23elcGq
bdsI0FFdhxZmjjbAOGMZ1Fgcx+x8+DCDnqYPcF3yaMmzCFL3Dxt8wqhssKPvkTmf
GxrAvJz8LmyNIVKwaJ8SEskEoxPiOXPgLJNvLKMndREvXpfeDc7jbADIVxz3b6nu
VN4UMtic6fc+572QNfapH+dc5idgh9qWgn5yxrnVbFBGvIgkkwsHWkSknvtb2043
W9WjA7gXeGj74G0s6/4oMwuF9J9ZHhZsXMifAgMBAAGjggEOMIIBCjALBgNVHQ8E
BAMCBaAwCQYDVR0TBAIwADARBglghkgBhvhCAQEEBAMCBkAwMwYJYIZIAYb4QgEN
BCYWJE9wZW5TU0wgR2VuZXJhdGVkIFNlcnZlciBDZXJ0aWZpY2F0ZTAdBgNVHQ4E
FgQUHWEAz74Zmxvadwd+dUjW+S5mozMwdAYDVR0jBG0wa4AU9KfAzJFGr2TzkfIn
+Miyb4qHMnOhSKRGMEQxCzAJBgNVBAYTAkRFMQ8wDQYDVQQIDAZIZXNzZW4xFDAS
BgNVBAoMC3ByaXZhY3lpZGVhMQ4wDAYDVQQDDAVDQTAwMYIJAPvI66yDzRIHMBMG
A1UdJQQMMAoGCCsGAQUFBwMBMA0GCSqGSIb3DQEBCwUAA4IBAQAD1pMktMXi7d0W
8aGnNlOc5C5L0fyDAsjoUpapyOrn7a7GAcm7B8yeaHXNU0U6ajdKWDHsIYhtWuoG
9RhoWNmsFD0vCq8WVjD+H5ZCvYDPCw/VGz9ruMQTZdNFA9UHWl/KNZdbP4nW7qHW
+fWpGGn89656E57wauJCOE1gKkZydwHQAB33ahkCWNNr3uCgby1gsTlatTplwMuI
4oV8KGEMcrSpnDTAZiUpH+9mpeCc5o+1Rfntk8pzFC1nX7bPPiqTLmvpCW2P/6Tz
v+gm1A6+8p2UgYqKfRkPl3NBBDW3sToasAGUQA1UXcNP2G91Ie4Cxl1mjp5SqZLW
qTsqoWvU
-----END CERTIFICATE-----
