Certificate:
    Data:
        Version: 3 (0x2)
        Serial Number: 268435671 (0x100000d7)
    Signature Algorithm: sha256WithRSAEncryption
        Issuer: C=DE, ST=Hessen, O=privacyidea, CN=CA001
        Validity
            Not Before: Jan 29 14:41:48 2019 GMT
            Not After : Jan 29 14:41:48 2020 GMT
        Subject: C=DE, ST=Hessen, O=privacyidea, CN=requester.localdomain
        Subject Public Key Info:
            Public Key Algorithm: rsaEncryption
                Public-Key: (2048 bit)
                Modulus:
                    00:cd:be:14:4f:fa:ce:01:3f:42:22:1b:1d:9c:af:
                    dd:92:d2:7f:db:6c:b7:3e:39:43:43:6b:13:03:f1:
                    05:f4:07:74:bc:76:69:28:0b:af:19:8e:d7:fc:e3:
                    cd:c6:58:f2:ca:7f:08:6d:53:fc:07:02:44:24:c6:
                    b4:34:4c:8c:04:fe:33:0e:40:e2:20:ba:02:73:5a:
                    f7:f5:4f:63:6e:cc:c6:b6:df:54:1d:37:39:7d:51:
                    36:26:5f:bd:dc:3f:a8:8b:6b:a2:ae:b6:9d:d6:21:
                    e7:df:41:b8:7a:28:2a:68:48:ca:a8:2d:ed:e1:e9:
                    46:5e:5a:72:6d:b4:84:38:87:91:fd:94:11:0b:28:
                    84:c6:c2:2f:2a:fb:01:f9:36:7a:09:75:d1:33:88:
                    3c:73:41:5b:c8:bf:94:89:70:a1:f0:c0:b9:2e:50:
                    53:1e:b1:17:64:69:f4:2d:81:e0:a9:0d:0e:32:e9:
                    ba:55:8a:85:f1:1b:6f:49:79:b4:7f:88:c3:0d:3e:
                    54:88:9b:3d:1f:38:8c:04:f3:ee:6a:63:2b:f5:c6:
                    db:b4:83:aa:c4:78:41:3a:7d:4b:e1:c8:3e:71:ca:
                    1b:61:59:ea:c6:c4:ca:32:5e:c9:e9:bf:12:29:e6:
                    c6:c3:63:fe:a0:55:da:7a:f1:60:98:4d:26:ed:fa:
                    70:2d
                Exponent: 65537 (0x10001)
        X509v3 extensions:
            X509v3 Key Usage: 
                Digital Signature, Key Encipherment
            X509v3 Basic Constraints: 
                CA:FALSE
            Netscape Cert Type: 
                SSL Server
            Netscape Comment: 
                OpenSSL Generated Server Certificate
            X509v3 Subject Key Identifier: 
                53:3F:ED:5D:09:07:B3:65:7B:AB:45:C9:24:5B:09:77:80:0A:96:ED
            X509v3 Authority Key Identifier: 
                keyid:F4:A7:C0:CC:91:46:AF:64:F3:91:F2:27:F8:C8:B2:6F:8A:87:32:73
                DirName:/C=DE/ST=Hessen/O=privacyidea/CN=CA001
                serial:FB:C8:EB:AC:83:CD:12:07

            X509v3 Extended Key Usage: 
                TLS Web Server Authentication
    Signature Algorithm: sha256WithRSAEncryption
         3c:b3:b3:50:be:84:99:f2:f0:4e:41:27:a1:d8:47:d6:a5:cc:
         b9:31:27:ca:5f:6d:db:c6:6a:0f:3f:f5:5d:7d:eb:17:90:fe:
         6c:da:33:a0:71:f2:b7:11:3f:93:77:0e:33:13:a8:d4:48:64:
         46:8d:cf:63:59:62:12:ba:51:0e:69:02:1c:b1:04:51:3c:0f:
         15:8c:62:13:ed:bc:4a:92:7f:af:d8:f7:60:27:f8:0a:66:d5:
         c6:dd:84:d9:56:04:f4:35:a4:0f:bf:f3:b7:c1:e8:d8:2a:04:
         8a:2b:30:62:fe:78:9e:45:db:7b:2d:d4:32:0b:62:eb:7e:76:
         17:86:f6:27:21:5d:a7:78:9b:58:53:0a:0a:0b:4a:4c:d6:c9:
         19:d5:69:5b:b8:d8:73:40:2c:b2:02:8c:65:ad:c3:a0:49:a0:
         11:0b:42:ac:59:da:da:25:90:03:2a:6f:02:dc:ee:47:76:43:
         ea:ce:17:e9:e1:fb:89:7c:db:c0:54:20:60:db:80:ea:ac:23:
         eb:87:9a:11:1d:e4:95:e1:6a:e5:c4:81:6c:d2:f5:e0:36:e5:
         8c:b3:b1:3e:95:32:b1:62:e6:13:84:6b:de:17:43:94:6d:9a:
         12:5c:b7:cc:1f:d6:d3:3f:74:95:d2:ad:ad:82:98:a4:36:c8:
         49:5a:fc:09
-----BEGIN CERTIFICATE-----
MIIEJjCCAw6gAwIBAgIEEAAA1zANBgkqhkiG9w0BAQsFADBEMQswCQYDVQQGEwJE
RTEPMA0GA1UECAwGSGVzc2VuMRQwEgYDVQQKDAtwcml2YWN5aWRlYTEOMAwGA1UE
AwwFQ0EwMDEwHhcNMTkwMTI5MTQ0MTQ4WhcNMjAwMTI5MTQ0MTQ4WjBUMQswCQYD
VQQGEwJERTEPMA0GA1UECAwGSGVzc2VuMRQwEgYDVQQKDAtwcml2YWN5aWRlYTEe
MBwGA1UEAwwVcmVxdWVzdGVyLmxvY2FsZG9tYWluMIIBIjANBgkqhkiG9w0BAQEF
AAOCAQ8AMIIBCgKCAQEAzb4UT/rOAT9CIhsdnK/dktJ/22y3PjlDQ2sTA/EF9Ad0
vHZpKAuvGY7X/OPNxljyyn8IbVP8BwJEJMa0NEyMBP4zDkDiILoCc1r39U9jbszG
tt9UHTc5fVE2Jl+93D+oi2uirrad1iHn30G4eigqaEjKqC3t4elGXlpybbSEOIeR
/ZQRCyiExsIvKvsB+TZ6CXXRM4g8c0FbyL+UiXCh8MC5LlBTHrEXZGn0LYHgqQ0O
Mum6VYqF8RtvSXm0f4jDDT5UiJs9HziMBPPuamMr9cbbtIOqxHhBOn1L4cg+ccob
YVnqxsTKMl7J6b8SKebGw2P+oFXaevFgmE0m7fpwLQIDAQABo4IBDjCCAQowCwYD
VR0PBAQDAgWgMAkGA1UdEwQCMAAwEQYJYIZIAYb4QgEBBAQDAgZAMDMGCWCGSAGG
+EIBDQQmFiRPcGVuU1NMIEdlbmVyYXRlZCBTZXJ2ZXIgQ2VydGlmaWNhdGUwHQYD
VR0OBBYEFFM/7V0JB7Nle6tFySRbCXeACpbtMHQGA1UdIwRtMGuAFPSnwMyRRq9k
85HyJ/jIsm+KhzJzoUikRjBEMQswCQYDVQQGEwJERTEPMA0GA1UECAwGSGVzc2Vu
MRQwEgYDVQQKDAtwcml2YWN5aWRlYTEOMAwGA1UEAwwFQ0EwMDGCCQD7yOusg80S
BzATBgNVHSUEDDAKBggrBgEFBQcDATANBgkqhkiG9w0BAQsFAAOCAQEAPLOzUL6E
mfLwTkEnodhH1qXMuTEnyl9t28ZqDz/1XX3rF5D+bNozoHHytxE/k3cOMxOo1Ehk
Ro3PY1liErpRDmkCHLEEUTwPFYxiE+28SpJ/r9j3YCf4CmbVxt2E2VYE9DWkD7/z
t8Ho2CoEiiswYv54nkXbey3UMgti6352F4b2JyFdp3ibWFMKCgtKTNbJGdVpW7jY
c0AssgKMZa3DoEmgEQtCrFna2iWQAypvAtzuR3ZD6s4X6eH7iXzbwFQgYNuA6qwj
64eaER3kleFq5cSBbNL14DbljLOxPpUysWLmE4Rr3hdDlG2aEly3zB/W0z90ldKt
rYKYpDbISVr8CQ==
-----END CERTIFICATE-----
