Certificate:
    Data:
        Version: 3 (0x2)
        Serial Number: 268435675 (0x100000db)
    Signature Algorithm: sha256WithRSAEncryption
        Issuer: C=DE, ST=Hessen, O=privacyidea, CN=CA001
        Validity
            Not Before: Jan 29 14:46:13 2019 GMT
            Not After : Jan 29 14:46:13 2020 GMT
        Subject: C=DE, ST=Hessen, O=privacyidea, CN=requester.localdomain
        Subject Public Key Info:
            Public Key Algorithm: rsaEncryption
                Public-Key: (2048 bit)
                Modulus:
                    00:cd:be:14:4f:fa:ce:01:3f:42:22:1b:1d:9c:af:
                    dd:92:d2:7f:db:6c:b7:3e:39:43:43:6b:13:03:f1:
                    05:f4:07:74:bc:76:69:28:0b:af:19:8e:d7:fc:e3:
                    cd:c6:58:f2:ca:7f:08:6d:53:fc:07:02:44:24:c6:
                    b4:34:4c:8c:04:fe:33:0e:40:e2:20:ba:02:73:5a:
                    f7:f5:4f:63:6e:cc:c6:b6:df:54:1d:37:39:7d:51:
                    36:26:5f:bd:dc:3f:a8:8b:6b:a2:ae:b6:9d:d6:21:
                    e7:df:41:b8:7a:28:2a:68:48:ca:a8:2d:ed:e1:e9:
                    46:5e:5a:72:6d:b4:84:38:87:91:fd:94:11:0b:28:
                    84:c6:c2:2f:2a:fb:01:f9:36:7a:09:75:d1:33:88:
                    3c:73:41:5b:c8:bf:94:89:70:a1:f0:c0:b9:2e:50:
                    53:1e:b1:17:64:69:f4:2d:81:e0:a9:0d:0e:32:e9:
                    ba:55:8a:85:f1:1b:6f:49:79:b4:7f:88:c3:0d:3e:
                    54:88:9b:3d:1f:38:8c:04:f3:ee:6a:63:2b:f5:c6:
                    db:b4:83:aa:c4:78:41:3a:7d:4b:e1:c8:3e:71:ca:
                    1b:61:59:ea:c6:c4:ca:32:5e:c9:e9:bf:12:29:e6:
                    c6:c3:63:fe:a0:55:da:7a:f1:60:98:4d:26:ed:fa:
                    70:2d
                Exponent: 65537 (0x10001)
        X509v3 extensions:
            X509v3 Key Usage: 
                Digital Signature, Key Encipherment
            X509v3 Basic Constraints: 
                CA:FALSE
            Netscape Cert Type: 
                SSL Server
            Netscape Comment: 
                OpenSSL Generated Server Certificate
            X509v3 Subject Key Identifier: 
                53:3F:ED:5D:09:07:B3:65:7B:AB:45:C9:24:5B:09:77:80:0A:96:ED
            X509v3 Authority Key Identifier: 
                keyid:F4:A7:C0:CC:91:46:AF:64:F3:91:F2:27:F8:C8:B2:6F:8A:87:32:73
                DirName:/C=DE/ST=Hessen/O=privacyidea/CN=CA001
                serial:FB:C8:EB:AC:83:CD:12:07

            X509v3 Extended Key Usage: 
                TLS Web Server Authentication
    Signature Algorithm: sha256WithRSAEncryption
         0e:f8:ef:35:ec:4e:74:bb:c2:97:f1:2d:18:28:54:a8:7a:b9:
         67:b4:0c:0f:6a:df:87:7d:cc:ca:36:12:61:e2:21:58:64:6d:
         e2:00:61:56:4c:a9:a8:86:4a:8a:2a:fb:0b:4b:f4:6b:1f:6b:
         e5:aa:3c:fc:d9:5d:c7:06:69:8f:c6:1f:92:1e:33:06:db:ba:
         1f:31:fe:40:0b:eb:9f:08:70:cb:d7:d7:db:4b:9b:2d:7f:9c:
         19:f8:42:d5:61:ce:9b:f0:f8:fe:94:cf:af:6a:7c:7f:18:02:
         40:c5:2b:58:dd:b9:29:61:b3:68:e4:f4:84:40:51:de:be:9c:
         b1:84:95:28:90:86:41:4d:e5:0f:86:51:fc:4e:c2:6f:47:64:
         14:e1:47:24:7c:7c:74:a4:19:0b:28:dd:e5:d5:4d:7a:47:ea:
         11:5e:1c:28:d2:79:cf:f8:df:86:67:85:61:d8:df:66:9f:b9:
         c2:f2:c0:46:5f:ed:77:e9:6a:e3:df:f9:26:28:2e:5f:d4:52:
         fb:8a:8d:31:cf:9c:d7:f2:5b:d4:ca:d0:25:49:09:00:25:cf:
         8d:f8:4f:ec:a6:e1:11:b3:82:ab:4e:a5:41:78:a4:d5:71:29:
         2c:2d:7d:4d:a9:4a:53:d5:83:dd:17:51:56:5c:1b:3f:34:e0:
         1d:f2:aa:3e
-----BEGIN CERTIFICATE-----
MIIEJjCCAw6gAwIBAgIEEAAA2zANBgkqhkiG9w0BAQsFADBEMQswCQYDVQQGEwJE
RTEPMA0GA1UECAwGSGVzc2VuMRQwEgYDVQQKDAtwcml2YWN5aWRlYTEOMAwGA1UE
AwwFQ0EwMDEwHhcNMTkwMTI5MTQ0NjEzWhcNMjAwMTI5MTQ0NjEzWjBUMQswCQYD
VQQGEwJERTEPMA0GA1UECAwGSGVzc2VuMRQwEgYDVQQKDAtwcml2YWN5aWRlYTEe
MBwGA1UEAwwVcmVxdWVzdGVyLmxvY2FsZG9tYWluMIIBIjANBgkqhkiG9w0BAQEF
AAOCAQ8AMIIBCgKCAQEAzb4UT/rOAT9CIhsdnK/dktJ/22y3PjlDQ2sTA/EF9Ad0
vHZpKAuvGY7X/OPNxljyyn8IbVP8BwJEJMa0NEyMBP4zDkDiILoCc1r39U9jbszG
tt9UHTc5fVE2Jl+93D+oi2uirrad1iHn30G4eigqaEjKqC3t4elGXlpybbSEOIeR
/ZQRCyiExsIvKvsB+TZ6CXXRM4g8c0FbyL+UiXCh8MC5LlBTHrEXZGn0LYHgqQ0O
Mum6VYqF8RtvSXm0f4jDDT5UiJs9HziMBPPuamMr9cbbtIOqxHhBOn1L4cg+ccob
YVnqxsTKMl7J6b8SKebGw2P+oFXaevFgmE0m7fpwLQIDAQABo4IBDjCCAQowCwYD
VR0PBAQDAgWgMAkGA1UdEwQCMAAwEQYJYIZIAYb4QgEBBAQDAgZAMDMGCWCGSAGG
+EIBDQQmFiRPcGVuU1NMIEdlbmVyYXRlZCBTZXJ2ZXIgQ2VydGlmaWNhdGUwHQYD
VR0OBBYEFFM/7V0JB7Nle6tFySRbCXeACpbtMHQGA1UdIwRtMGuAFPSnwMyRRq9k
85HyJ/jIsm+KhzJzoUikRjBEMQswCQYDVQQGEwJERTEPMA0GA1UECAwGSGVzc2Vu
MRQwEgYDVQQKDAtwcml2YWN5aWRlYTEOMAwGA1UEAwwFQ0EwMDGCCQD7yOusg80S
BzATBgNVHSUEDDAKBggrBgEFBQcDATANBgkqhkiG9w0BAQsFAAOCAQEADvjvNexO
dLvCl/EtGChUqHq5Z7QMD2rfh33MyjYSYeIhWGRt4gBhVkypqIZKiir7C0v0ax9r
5ao8/NldxwZpj8Yfkh4zBtu6HzH+QAvrnwhwy9fX20ubLX+cGfhC1WHOm/D4/pTP
r2p8fxgCQMUrWN25KWGzaOT0hEBR3r6csYSVKJCGQU3lD4ZR/E7Cb0dkFOFHJHx8
dKQZCyjd5dVNekfqEV4cKNJ5z/jfhmeFYdjfZp+5wvLARl/td+lq49/5JiguX9RS
+4qNMc+c1/Jb1MrQJUkJACXPjfhP7KbhEbOCq06lQXik1XEpLC19TalKU9WD3RdR
VlwbPzTgHfKqPg==
-----END CERTIFICATE-----
