Certificate:
    Data:
        Version: 3 (0x2)
        Serial Number: 268435679 (0x100000df)
    Signature Algorithm: sha256WithRSAEncryption
        Issuer: C=DE, ST=Hessen, O=privacyidea, CN=CA001
        Validity
            Not Before: Jan 27 08:30:07 2019 GMT
            Not After : Jan 27 08:30:07 2020 GMT
        Subject: CN=selfservice,CN=user,O=realm1/emailAddress=meine
        Subject Public Key Info:
            Public Key Algorithm: rsaEncryption
                Public-Key: (2048 bit)
                Modulus:
                    00:cf:3c:d4:33:0e:12:c4:e6:da:cd:b6:56:a1:1c:
                    26:bb:26:1c:8a:4a:73:a8:58:8a:b6:1e:b3:8b:99:
                    d2:1d:07:c2:92:89:79:c0:69:d8:c8:df:28:61:98:
                    1e:b3:fe:ae:2b:bd:78:a9:f7:6e:47:dc:a3:a0:16:
                    8c:85:02:c1:4e:92:fd:72:6e:f0:c8:03:29:9b:b8:
                    00:6e:c0:83:95:c8:34:20:36:9c:b3:e5:e4:e6:76:
                    73:a3:1a:ad:40:96:e0:53:54:00:ec:76:79:9a:c6:
                    0d:7e:b6:bd:29:ec:83:f3:cb:89:a4:cb:6c:00:ba:
                    0c:c5:78:0f:ff:69:b8:94:f4:04:70:43:3f:d8:9e:
                    d7:a7:fb:5d:ce:75:8e:da:e7:c4:07:b1:9d:de:6f:
                    88:4b:b6:4d:9a:cf:f9:bc:fa:9f:cd:32:6d:f6:3a:
                    0b:0d:23:42:78:ec:97:42:bf:0e:4d:60:56:e1:d3:
                    02:f2:19:cb:84:57:90:e5:70:a1:a2:83:35:86:e2:
                    da:86:9f:f9:8a:c4:79:b3:52:28:da:cb:bb:34:ca:
                    d3:da:91:4a:cf:8d:76:a2:b2:6b:9b:f9:96:fd:09:
                    2a:da:11:23:4d:f0:cb:d6:b2:b1:0e:12:6c:9a:19:
                    65:98:87:ca:e4:ee:24:ce:44:ac:90:8f:9d:1b:c5:
                    2a:9d
                Exponent: 65537 (0x10001)
        X509v3 extensions:
            X509v3 Key Usage: 
                Digital Signature, Key Encipherment
            X509v3 Basic Constraints: 
                CA:FALSE
            Netscape Cert Type: 
                SSL Server
            Netscape Comment: 
                OpenSSL Generated Server Certificate
            X509v3 Subject Key Identifier: 
                4D:07:90:AD:FF:1D:0D:E7:1A:DD:D6:2E:FA:BA:34:CB:AA:1F:24:C6
            X509v3 Authority Key Identifier: 
                keyid:F4:A7:C0:CC:91:46:AF:64:F3:91:F2:27:F8:C8:B2:6F:8A:87:32:73
                DirName:/C=DE/ST=Hessen/O=privacyidea/CN=CA001
                serial:FB:C8:EB:AC:83:CD:12:07

            X509v3 Extended Key Usage: 
                TLS Web Server Authentication
    Signature Algorithm: sha256WithRSAEncryption
         2e:81:52:d0:16:5d:71:b4:9c:70:b2:3d:49:37:ae:ff:a1:a4:
         5c:f9:3b:27:c3:d5:4c:d9:5e:c6:82:e8:2b:06:dc:45:a2:4e:
         1d:db:57:60:56:35:0d:50:08:90:36:96:77:d8:96:ff:60:85:
         92:f4:67:65:35:2d:83:47:6e:ae:71:ab:85:20:0d:a4:74:37:
         55:13:10:f9:07:9d:d5:8a:46:0a:1f:40:28:59:b2:64:d1:1d:
         4d:6a:28:9e:43:8b:61:d7:96:a4:02:b8:07:8c:31:84:f8:a6:
         48:ba:41:94:2e:66:f2:8d:c1:1f:ca:ff:fa:36:55:df:e3:c0:
         f1:ca:38:bc:40:ca:a9:36:7a:60:9f:fd:41:3b:02:b9:06:69:
         70:8e:94:13:5d:92:5b:95:10:aa:35:28:49:ca:e4:95:9f:af:
         73:74:33:a0:ee:27:7e:50:bc:2a:16:9b:1d:d0:5c:c1:07:25:
         56:e0:f8:51:1e:1a:ce:d5:42:ae:4b:61:e8:51:53:36:c1:d8:
         a0:37:e4:f7:64:05:1a:0d:48:ff:12:62:e5:b3:a6:e5:84:1a:
         63:47:29:6c:9f:98:d9:01:92:69:5b:e6:ee:18:f3:bf:70:43:
         b3:67:d4:10:ed:d0:46:f9:91:5c:9c:43:bb:71:58:5b:80:dc:
         e8:85:1f:fd
-----BEGIN CERTIFICATE-----
MIIEDzCCAvegAwIBAgIEEAAA3zANBgkqhkiG9w0BAQsFADBEMQswCQYDVQQGEwJE
RTEPMA0GA1UECAwGSGVzc2VuMRQwEgYDVQQKDAtwcml2YWN5aWRlYTEOMAwGA1UE
AwwFQ0EwMDEwHhcNMTkwMTI3MDgzMDA3WhcNMjAwMTI3MDgzMDA3WjA9MSUwIwYD
VQQDDBxzZWxmc2VydmljZSxDTj11c2VyLE89cmVhbG0xMRQwEgYJKoZIhvcNAQkB
FgVtZWluZTCCASIwDQYJKoZIhvcNAQEBBQADggEPADCCAQoCggEBAM881DMOEsTm
2s22VqEcJrsmHIpKc6hYirYes4uZ0h0HwpKJecBp2MjfKGGYHrP+riu9eKn3bkfc
o6AWjIUCwU6S/XJu8MgDKZu4AG7Ag5XINCA2nLPl5OZ2c6MarUCW4FNUAOx2eZrG
DX62vSnsg/PLiaTLbAC6DMV4D/9puJT0BHBDP9ie16f7Xc51jtrnxAexnd5viEu2
TZrP+bz6n80ybfY6Cw0jQnjsl0K/Dk1gVuHTAvIZy4RXkOVwoaKDNYbi2oaf+YrE
ebNSKNrLuzTK09qRSs+NdqKya5v5lv0JKtoRI03wy9aysQ4SbJoZZZiHyuTuJM5E
rJCPnRvFKp0CAwEAAaOCAQ4wggEKMAsGA1UdDwQEAwIFoDAJBgNVHRMEAjAAMBEG
CWCGSAGG+EIBAQQEAwIGQDAzBglghkgBhvhCAQ0EJhYkT3BlblNTTCBHZW5lcmF0
ZWQgU2VydmVyIENlcnRpZmljYXRlMB0GA1UdDgQWBBRNB5Ct/x0N5xrd1i76ujTL
qh8kxjB0BgNVHSMEbTBrgBT0p8DMkUavZPOR8if4yLJviocyc6FIpEYwRDELMAkG
A1UEBhMCREUxDzANBgNVBAgMBkhlc3NlbjEUMBIGA1UECgwLcHJpdmFjeWlkZWEx
DjAMBgNVBAMMBUNBMDAxggkA+8jrrIPNEgcwEwYDVR0lBAwwCgYIKwYBBQUHAwEw
DQYJKoZIhvcNAQELBQADggEBAC6BUtAWXXG0nHCyPUk3rv+hpFz5OyfD1UzZXsaC
6CsG3EWiTh3bV2BWNQ1QCJA2lnfYlv9ghZL0Z2U1LYNHbq5xq4UgDaR0N1UTEPkH
ndWKRgofQChZsmTRHU1qKJ5Di2HXlqQCuAeMMYT4pki6QZQuZvKNwR/K//o2Vd/j
wPHKOLxAyqk2emCf/UE7ArkGaXCOlBNdkluVEKo1KEnK5JWfr3N0M6DuJ35QvCoW
mx3QXMEHJVbg+FEeGs7VQq5LYehRUzbB2KA35PdkBRoNSP8SYuWzpuWEGmNHKWyf
mNkBkmlb5u4Y879wQ7Nn1BDt0Eb5kVycQ7txWFuA3OiFH/0=
-----END CERTIFICATE-----
