Certificate:
    Data:
        Version: 3 (0x2)
        Serial Number: 268435674 (0x100000da)
    Signature Algorithm: sha256WithRSAEncryption
        Issuer: C=DE, ST=Hessen, O=privacyidea, CN=CA001
        Validity
            Not Before: Jan 29 14:41:49 2019 GMT
            Not After : Feb 17 14:41:49 2021 GMT
        Subject: CN=Steve Test/emailAddress=steve@openssl.org
        Subject Public Key Info:
            Public Key Algorithm: rsaEncryption
                Public-Key: (2048 bit)
                Modulus:
                    00:d2:81:89:20:51:48:0f:73:f4:11:32:24:d5:1f:
                    1c:fd:5c:f5:b6:e6:c5:f0:52:81:dc:d2:af:66:4a:
                    7c:93:31:61:5c:af:d1:6d:06:70:03:60:7c:72:0c:
                    88:dd:49:cd:9e:02:6c:d2:5a:d7:53:0f:f3:da:be:
                    69:64:b5:0f:0c:00:e3:b3:50:47:a3:b3:9b:ba:13:
                    50:d6:58:5a:4b:ab:39:e0:11:ca:0a:27:67:03:78:
                    22:66:6d:92:1e:1b:5c:49:ae:e6:6b:d1:8e:3b:9d:
                    06:d3:c6:ac:4d:53:43:10:ab:e8:96:c1:87:82:97:
                    99:8f:20:d3:99:12:37:31:84:e1:8a:ff:29:03:5f:
                    22:90:3e:7f:9b:e0:20:c1:ad:dc:ae:4c:39:1a:31:
                    96:17:02:8c:b2:d9:b4:0d:20:12:9b:7d:86:54:fd:
                    33:fd:c1:2a:62:46:f8:60:96:cf:6e:01:6f:22:df:
                    13:47:e7:97:ec:05:72:23:a3:62:f8:fa:ef:ac:9c:
                    72:f0:37:cb:2f:37:cf:90:a8:27:51:86:c6:d7:78:
                    08:8f:7e:25:a2:15:70:a2:fb:1c:b6:15:5e:a0:97:
                    8b:81:4c:09:28:8a:27:3b:94:bc:71:db:5b:71:37:
                    9a:2b:16:e0:6f:b5:c9:f5:4b:4f:20:ba:65:cf:af:
                    ad:ad
                Exponent: 65537 (0x10001)
        X509v3 extensions:
            X509v3 Key Usage: 
                Digital Signature, Key Encipherment
            X509v3 Basic Constraints: 
                CA:FALSE
            Netscape Cert Type: 
                SSL Server
            Netscape Comment: 
                OpenSSL Generated Server Certificate
            X509v3 Subject Key Identifier: 
                E5:25:6D:3E:AF:0D:DD:3F:4C:F2:45:19:39:D5:14:DB:7E:9C:C0:AD
            X509v3 Authority Key Identifier: 
                keyid:F4:A7:C0:CC:91:46:AF:64:F3:91:F2:27:F8:C8:B2:6F:8A:87:32:73
                DirName:/C=DE/ST=Hessen/O=privacyidea/CN=CA001
                serial:FB:C8:EB:AC:83:CD:12:07

            X509v3 Extended Key Usage: 
                TLS Web Server Authentication
    Signature Algorithm: sha256WithRSAEncryption
         88:1b:ef:7f:49:35:88:85:d5:00:9b:e7:69:ba:ea:a9:b0:ee:
         3c:24:e3:c8:11:57:01:f6:f2:0e:ec:1a:fd:27:76:3d:80:27:
         6c:43:77:c4:54:30:01:38:b1:54:66:9a:bd:3f:65:16:28:76:
         bc:dc:29:a3:58:7b:75:f7:39:81:33:27:ac:00:d9:d9:43:d7:
         b8:aa:3a:a0:93:42:47:a9:94:f1:83:8e:cb:c7:0a:75:de:98:
         23:b9:81:fe:a3:30:9d:c7:26:b8:1d:b2:67:2a:a5:de:c8:40:
         64:d9:0c:2d:7c:b4:d1:92:66:22:20:e2:ff:d7:08:af:f3:bb:
         88:70:39:22:9f:dd:ae:ef:c8:2a:ff:93:f3:b5:32:94:d8:4f:
         6e:b9:27:b1:7a:89:cb:6f:50:25:dd:fb:43:82:0e:0d:aa:74:
         42:87:83:6f:fa:2a:d2:b9:88:f8:ed:61:71:bb:91:f7:f0:58:
         f7:9a:fc:a1:18:53:91:75:28:49:4e:e0:2f:e2:3e:15:e0:eb:
         d6:c4:53:d8:70:41:ec:66:db:7e:2a:fa:5b:a1:3b:42:c8:b0:
         fc:c8:92:91:7b:6d:76:bb:8c:71:e0:95:de:4f:bc:45:97:cb:
         ca:f9:79:33:ff:03:16:24:15:33:8c:82:c1:1f:a7:74:5c:b0:
         98:7b:02:6f
-----BEGIN CERTIFICATE-----
MIIECTCCAvGgAwIBAgIEEAAA2jANBgkqhkiG9w0BAQsFADBEMQswCQYDVQQGEwJE
RTEPMA0GA1UECAwGSGVzc2VuMRQwEgYDVQQKDAtwcml2YWN5aWRlYTEOMAwGA1UE
AwwFQ0EwMDEwHhcNMTkwMTI5MTQ0MTQ5WhcNMjEwMjE3MTQ0MTQ5WjA3MRMwEQYD
VQQDDApTdGV2ZSBUZXN0MSAwHgYJKoZIhvcNAQkBFhFzdGV2ZUBvcGVuc3NsLm9y
ZzCCASIwDQYJKoZIhvcNAQEBBQADggEPADCCAQoCggEBANKBiSBRSA9z9BEyJNUf
HP1c9bbmxfBSgdzSr2ZKfJMxYVyv0W0GcANgfHIMiN1JzZ4CbNJa11MP89q+aWS1
DwwA47NQR6Ozm7oTUNZYWkurOeARygonZwN4ImZtkh4bXEmu5mvRjjudBtPGrE1T
QxCr6JbBh4KXmY8g05kSNzGE4Yr/KQNfIpA+f5vgIMGt3K5MORoxlhcCjLLZtA0g
Ept9hlT9M/3BKmJG+GCWz24BbyLfE0fnl+wFciOjYvj676yccvA3yy83z5CoJ1GG
xtd4CI9+JaIVcKL7HLYVXqCXi4FMCSiKJzuUvHHbW3E3misW4G+1yfVLTyC6Zc+v
ra0CAwEAAaOCAQ4wggEKMAsGA1UdDwQEAwIFoDAJBgNVHRMEAjAAMBEGCWCGSAGG
+EIBAQQEAwIGQDAzBglghkgBhvhCAQ0EJhYkT3BlblNTTCBHZW5lcmF0ZWQgU2Vy
dmVyIENlcnRpZmljYXRlMB0GA1UdDgQWBBTlJW0+rw3dP0zyRRk51RTbfpzArTB0
BgNVHSMEbTBrgBT0p8DMkUavZPOR8if4yLJviocyc6FIpEYwRDELMAkGA1UEBhMC
REUxDzANBgNVBAgMBkhlc3NlbjEUMBIGA1UECgwLcHJpdmFjeWlkZWExDjAMBgNV
BAMMBUNBMDAxggkA+8jrrIPNEgcwEwYDVR0lBAwwCgYIKwYBBQUHAwEwDQYJKoZI
hvcNAQELBQADggEBAIgb739JNYiF1QCb52m66qmw7jwk48gRVwH28g7sGv0ndj2A
J2xDd8RUMAE4sVRmmr0/ZRYodrzcKaNYe3X3OYEzJ6wA2dlD17iqOqCTQkeplPGD
jsvHCnXemCO5gf6jMJ3HJrgdsmcqpd7IQGTZDC18tNGSZiIg4v/XCK/zu4hwOSKf
3a7vyCr/k/O1MpTYT265J7F6ictvUCXd+0OCDg2qdEKHg2/6KtK5iPjtYXG7kffw
WPea/KEYU5F1KElO4C/iPhXg69bEU9hwQexm234q+luhO0LIsPzIkpF7bXa7jHHg
ld5PvEWXy8r5eTP/AxYkFTOMgsEfp3RcsJh7Am8=
-----END CERTIFICATE-----
