Certificate:
    Data:
        Version: 3 (0x2)
        Serial Number: 268435673 (0x100000d9)
    Signature Algorithm: sha256WithRSAEncryption
        Issuer: C=DE, ST=Hessen, O=privacyidea, CN=CA001
        Validity
            Not Before: Jan 29 14:41:48 2019 GMT
            Not After : Jan 29 14:41:48 2020 GMT
        Subject: CN=Steve Test/emailAddress=steve@openssl.org
        Subject Public Key Info:
            Public Key Algorithm: rsaEncryption
                Public-Key: (2048 bit)
                Modulus:
                    00:d2:81:89:20:51:48:0f:73:f4:11:32:24:d5:1f:
                    1c:fd:5c:f5:b6:e6:c5:f0:52:81:dc:d2:af:66:4a:
                    7c:93:31:61:5c:af:d1:6d:06:70:03:60:7c:72:0c:
                    88:dd:49:cd:9e:02:6c:d2:5a:d7:53:0f:f3:da:be:
                    69:64:b5:0f:0c:00:e3:b3:50:47:a3:b3:9b:ba:13:
                    50:d6:58:5a:4b:ab:39:e0:11:ca:0a:27:67:03:78:
                    22:66:6d:92:1e:1b:5c:49:ae:e6:6b:d1:8e:3b:9d:
                    06:d3:c6:ac:4d:53:43:10:ab:e8:96:c1:87:82:97:
                    99:8f:20:d3:99:12:37:31:84:e1:8a:ff:29:03:5f:
                    22:90:3e:7f:9b:e0:20:c1:ad:dc:ae:4c:39:1a:31:
                    96:17:02:8c:b2:d9:b4:0d:20:12:9b:7d:86:54:fd:
                    33:fd:c1:2a:62:46:f8:60:96:cf:6e:01:6f:22:df:
                    13:47:e7:97:ec:05:72:23:a3:62:f8:fa:ef:ac:9c:
                    72:f0:37:cb:2f:37:cf:90:a8:27:51:86:c6:d7:78:
                    08:8f:7e:25:a2:15:70:a2:fb:1c:b6:15:5e:a0:97:
                    8b:81:4c:09:28:8a:27:3b:94:bc:71:db:5b:71:37:
                    9a:2b:16:e0:6f:b5:c9:f5:4b:4f:20:ba:65:cf:af:
                    ad:ad
                Exponent: 65537 (0x10001)
        X509v3 extensions:
            X509v3 Key Usage: 
                Digital Signature, Key Encipherment
            X509v3 Basic Constraints: 
                CA:FALSE
            Netscape Cert Type: 
                SSL Server
            Netscape Comment: 
                OpenSSL Generated Server Certificate
            X509v3 Subject Key Identifier: 
                E5:25:6D:3E:AF:0D:DD:3F:4C:F2:45:19:39:D5:14:DB:7E:9C:C0:AD
            X509v3 Authority Key Identifier: 
                keyid:F4:A7:C0:CC:91:46:AF:64:F3:91:F2:27:F8:C8:B2:6F:8A:87:32:73
                DirName:/C=DE/ST=Hessen/O=privacyidea/CN=CA001
                serial:FB:C8:EB:AC:83:CD:12:07

            X509v3 Extended Key Usage: 
                TLS Web Server Authentication
    Signature Algorithm: sha256WithRSAEncryption
         50:7d:8c:e0:f3:88:1a:74:8f:42:c8:e9:12:cf:8a:36:44:b6:
         cd:27:ba:9d:00:19:c1:0f:bd:33:16:c1:15:87:77:62:e5:5c:
         07:ea:76:01:df:a7:9a:57:27:4d:e5:b0:b7:88:2d:7a:84:d2:
         25:8e:30:8e:5d:0d:80:d0:45:35:db:7d:77:ed:65:cf:a0:29:
         9f:90:3a:44:cb:3e:ce:14:61:67:ae:b5:82:68:27:ea:4d:31:
         da:70:d2:93:f3:d7:d5:17:dc:4c:f6:08:95:7e:e8:32:31:ac:
         7d:fa:84:5f:64:13:88:27:74:70:ab:5d:cf:a0:92:d6:31:30:
         38:cc:44:d0:a2:9e:3f:06:e1:ef:f7:05:57:34:3b:a3:2e:49:
         c1:54:ac:26:27:98:bc:de:76:e4:f1:34:62:5b:0b:6b:2e:91:
         31:fd:05:47:63:f9:ef:17:d9:32:02:82:af:8b:9b:d5:33:6c:
         65:c6:de:63:d8:ec:b9:8f:87:4c:c6:5f:0f:2b:02:c3:c0:79:
         ee:49:e3:cf:92:97:ba:ea:ce:2d:3d:96:4e:83:21:79:12:76:
         ac:30:8f:03:b5:1c:12:0c:a8:2f:c2:57:79:cd:31:59:0a:10:
         48:f5:3a:7a:19:12:e2:9a:06:3b:9e:2c:e5:d5:29:e5:18:cf:
         38:0d:7a:b2
-----BEGIN CERTIFICATE-----
MIIECTCCAvGgAwIBAgIEEAAA2TANBgkqhkiG9w0BAQsFADBEMQswCQYDVQQGEwJE
RTEPMA0GA1UECAwGSGVzc2VuMRQwEgYDVQQKDAtwcml2YWN5aWRlYTEOMAwGA1UE
AwwFQ0EwMDEwHhcNMTkwMTI5MTQ0MTQ4WhcNMjAwMTI5MTQ0MTQ4WjA3MRMwEQYD
VQQDDApTdGV2ZSBUZXN0MSAwHgYJKoZIhvcNAQkBFhFzdGV2ZUBvcGVuc3NsLm9y
ZzCCASIwDQYJKoZIhvcNAQEBBQADggEPADCCAQoCggEBANKBiSBRSA9z9BEyJNUf
HP1c9bbmxfBSgdzSr2ZKfJMxYVyv0W0GcANgfHIMiN1JzZ4CbNJa11MP89q+aWS1
DwwA47NQR6Ozm7oTUNZYWkurOeARygonZwN4ImZtkh4bXEmu5mvRjjudBtPGrE1T
QxCr6JbBh4KXmY8g05kSNzGE4Yr/KQNfIpA+f5vgIMGt3K5MORoxlhcCjLLZtA0g
Ept9hlT9M/3BKmJG+GCWz24BbyLfE0fnl+wFciOjYvj676yccvA3yy83z5CoJ1GG
xtd4CI9+JaIVcKL7HLYVXqCXi4FMCSiKJzuUvHHbW3E3misW4G+1yfVLTyC6Zc+v
ra0CAwEAAaOCAQ4wggEKMAsGA1UdDwQEAwIFoDAJBgNVHRMEAjAAMBEGCWCGSAGG
+EIBAQQEAwIGQDAzBglghkgBhvhCAQ0EJhYkT3BlblNTTCBHZW5lcmF0ZWQgU2Vy
dmVyIENlcnRpZmljYXRlMB0GA1UdDgQWBBTlJW0+rw3dP0zyRRk51RTbfpzArTB0
BgNVHSMEbTBrgBT0p8DMkUavZPOR8if4yLJviocyc6FIpEYwRDELMAkGA1UEBhMC
REUxDzANBgNVBAgMBkhlc3NlbjEUMBIGA1UECgwLcHJpdmFjeWlkZWExDjAMBgNV
BAMMBUNBMDAxggkA+8jrrIPNEgcwEwYDVR0lBAwwCgYIKwYBBQUHAwEwDQYJKoZI
hvcNAQELBQADggEBAFB9jODziBp0j0LI6RLPijZEts0nup0AGcEPvTMWwRWHd2Ll
XAfqdgHfp5pXJ03lsLeILXqE0iWOMI5dDYDQRTXbfXftZc+gKZ+QOkTLPs4UYWeu
tYJoJ+pNMdpw0pPz19UX3Ez2CJV+6DIxrH36hF9kE4gndHCrXc+gktYxMDjMRNCi
nj8G4e/3BVc0O6MuScFUrCYnmLzeduTxNGJbC2sukTH9BUdj+e8X2TICgq+Lm9Uz
bGXG3mPY7LmPh0zGXw8rAsPAee5J48+Sl7rqzi09lk6DIXkSdqwwjwO1HBIMqC/C
V3nNMVkKEEj1OnoZEuKaBjueLOXVKeUYzzgNerI=
-----END CERTIFICATE-----
