Certificate:
    Data:
        Version: 3 (0x2)
        Serial Number: 268435668 (0x100000d4)
    Signature Algorithm: sha256WithRSAEncryption
        Issuer: C=DE, ST=Hessen, O=privacyidea, CN=CA001
        Validity
            Not Before: Jan 29 14:34:28 2019 GMT
            Not After : Jan 29 14:34:28 2020 GMT
        Subject: CN=Steve Test/emailAddress=steve@openssl.org
        Subject Public Key Info:
            Public Key Algorithm: rsaEncryption
                Public-Key: (2048 bit)
                Modulus:
                    00:d2:81:89:20:51:48:0f:73:f4:11:32:24:d5:1f:
                    1c:fd:5c:f5:b6:e6:c5:f0:52:81:dc:d2:af:66:4a:
                    7c:93:31:61:5c:af:d1:6d:06:70:03:60:7c:72:0c:
                    88:dd:49:cd:9e:02:6c:d2:5a:d7:53:0f:f3:da:be:
                    69:64:b5:0f:0c:00:e3:b3:50:47:a3:b3:9b:ba:13:
                    50:d6:58:5a:4b:ab:39:e0:11:ca:0a:27:67:03:78:
                    22:66:6d:92:1e:1b:5c:49:ae:e6:6b:d1:8e:3b:9d:
                    06:d3:c6:ac:4d:53:43:10:ab:e8:96:c1:87:82:97:
                    99:8f:20:d3:99:12:37:31:84:e1:8a:ff:29:03:5f:
                    22:90:3e:7f:9b:e0:20:c1:ad:dc:ae:4c:39:1a:31:
                    96:17:02:8c:b2:d9:b4:0d:20:12:9b:7d:86:54:fd:
                    33:fd:c1:2a:62:46:f8:60:96:cf:6e:01:6f:22:df:
                    13:47:e7:97:ec:05:72:23:a3:62:f8:fa:ef:ac:9c:
                    72:f0:37:cb:2f:37:cf:90:a8:27:51:86:c6:d7:78:
                    08:8f:7e:25:a2:15:70:a2:fb:1c:b6:15:5e:a0:97:
                    8b:81:4c:09:28:8a:27:3b:94:bc:71:db:5b:71:37:
                    9a:2b:16:e0:6f:b5:c9:f5:4b:4f:20:ba:65:cf:af:
                    ad:ad
                Exponent: 65537 (0x10001)
        X509v3 extensions:
            X509v3 Key Usage: 
                Digital Signature, Key Encipherment
            X509v3 Basic Constraints: 
                CA:FALSE
            Netscape Cert Type: 
                SSL Server
            Netscape Comment: 
                OpenSSL Generated Server Certificate
            X509v3 Subject Key Identifier: 
                E5:25:6D:3E:AF:0D:DD:3F:4C:F2:45:19:39:D5:14:DB:7E:9C:C0:AD
            X509v3 Authority Key Identifier: 
                keyid:F4:A7:C0:CC:91:46:AF:64:F3:91:F2:27:F8:C8:B2:6F:8A:87:32:73
                DirName:/C=DE/ST=Hessen/O=privacyidea/CN=CA001
                serial:FB:C8:EB:AC:83:CD:12:07

            X509v3 Extended Key Usage: 
                TLS Web Server Authentication
    Signature Algorithm: sha256WithRSAEncryption
         3a:ee:62:d7:3f:a1:42:2f:a7:c5:31:d7:01:20:ed:cd:40:14:
         5f:40:b8:03:64:02:b5:fb:b6:2e:f5:89:e2:cd:9b:25:f5:28:
         29:0d:83:46:c5:db:2f:fb:cb:54:fc:2c:47:a0:04:2c:f6:4c:
         17:f1:e3:4f:31:59:cb:73:18:3d:c3:ce:dd:7f:cc:8a:30:9f:
         5a:7c:50:7e:60:57:25:61:59:3f:86:08:01:03:fe:85:c2:92:
         27:d4:80:fc:cc:71:aa:80:6e:c3:48:78:3b:9a:9b:d6:e5:2b:
         55:9f:8b:31:bc:ab:f9:83:c1:bf:ff:45:a2:53:4d:be:99:23:
         16:67:df:89:99:ac:84:78:59:30:3d:01:ca:cf:42:d1:06:04:
         5a:ac:1c:57:90:8e:c1:05:8a:62:b6:27:27:f8:7c:60:ad:e4:
         61:37:b8:aa:7d:f8:98:b4:ad:b2:8e:00:33:46:c0:fa:1f:fd:
         26:61:a1:79:4c:36:8a:25:b3:77:00:a5:17:1d:e8:4f:89:db:
         24:dc:e4:d5:b5:e5:de:88:a9:cf:6f:e3:9b:6e:33:7b:6c:c9:
         33:a8:e2:32:4d:8f:d2:74:07:d7:fd:83:8b:ee:df:3f:2d:b2:
         34:fd:58:ec:f8:1b:54:96:d0:ce:4e:62:fe:ff:9b:de:01:5c:
         bd:dd:ad:13
-----BEGIN CERTIFICATE-----
MIIECTCCAvGgAwIBAgIEEAAA1DANBgkqhkiG9w0BAQsFADBEMQswCQYDVQQGEwJE
RTEPMA0GA1UECAwGSGVzc2VuMRQwEgYDVQQKDAtwcml2YWN5aWRlYTEOMAwGA1UE
AwwFQ0EwMDEwHhcNMTkwMTI5MTQzNDI4WhcNMjAwMTI5MTQzNDI4WjA3MRMwEQYD
VQQDDApTdGV2ZSBUZXN0MSAwHgYJKoZIhvcNAQkBFhFzdGV2ZUBvcGVuc3NsLm9y
ZzCCASIwDQYJKoZIhvcNAQEBBQADggEPADCCAQoCggEBANKBiSBRSA9z9BEyJNUf
HP1c9bbmxfBSgdzSr2ZKfJMxYVyv0W0GcANgfHIMiN1JzZ4CbNJa11MP89q+aWS1
DwwA47NQR6Ozm7oTUNZYWkurOeARygonZwN4ImZtkh4bXEmu5mvRjjudBtPGrE1T
QxCr6JbBh4KXmY8g05kSNzGE4Yr/KQNfIpA+f5vgIMGt3K5MORoxlhcCjLLZtA0g
Ept9hlT9M/3BKmJG+GCWz24BbyLfE0fnl+wFciOjYvj676yccvA3yy83z5CoJ1GG
xtd4CI9+JaIVcKL7HLYVXqCXi4FMCSiKJzuUvHHbW3E3misW4G+1yfVLTyC6Zc+v
ra0CAwEAAaOCAQ4wggEKMAsGA1UdDwQEAwIFoDAJBgNVHRMEAjAAMBEGCWCGSAGG
+EIBAQQEAwIGQDAzBglghkgBhvhCAQ0EJhYkT3BlblNTTCBHZW5lcmF0ZWQgU2Vy
dmVyIENlcnRpZmljYXRlMB0GA1UdDgQWBBTlJW0+rw3dP0zyRRk51RTbfpzArTB0
BgNVHSMEbTBrgBT0p8DMkUavZPOR8if4yLJviocyc6FIpEYwRDELMAkGA1UEBhMC
REUxDzANBgNVBAgMBkhlc3NlbjEUMBIGA1UECgwLcHJpdmFjeWlkZWExDjAMBgNV
BAMMBUNBMDAxggkA+8jrrIPNEgcwEwYDVR0lBAwwCgYIKwYBBQUHAwEwDQYJKoZI
hvcNAQELBQADggEBADruYtc/oUIvp8Ux1wEg7c1AFF9AuANkArX7ti71ieLNmyX1
KCkNg0bF2y/7y1T8LEegBCz2TBfx408xWctzGD3Dzt1/zIown1p8UH5gVyVhWT+G
CAED/oXCkifUgPzMcaqAbsNIeDuam9blK1WfizG8q/mDwb//RaJTTb6ZIxZn34mZ
rIR4WTA9AcrPQtEGBFqsHFeQjsEFimK2Jyf4fGCt5GE3uKp9+Ji0rbKOADNGwPof
/SZhoXlMNools3cApRcd6E+J2yTc5NW15d6Iqc9v45tuM3tsyTOo4jJNj9J0B9f9
g4vu3z8tsjT9WOz4G1SW0M5OYv7/m94BXL3drRM=
-----END CERTIFICATE-----
