Certificate:
    Data:
        Version: 3 (0x2)
        Serial Number: 268435677 (0x100000dd)
    Signature Algorithm: sha256WithRSAEncryption
        Issuer: C=DE, ST=Hessen, O=privacyidea, CN=CA001
        Validity
            Not Before: Jan 29 14:54:43 2019 GMT
            Not After : Jan 29 14:54:43 2020 GMT
        Subject: CN=selfservice,CN=user,O=realm1/emailAddress=meine
        Subject Public Key Info:
            Public Key Algorithm: rsaEncryption
                Public-Key: (2048 bit)
                Modulus:
                    00:cf:3c:d4:33:0e:12:c4:e6:da:cd:b6:56:a1:1c:
                    26:bb:26:1c:8a:4a:73:a8:58:8a:b6:1e:b3:8b:99:
                    d2:1d:07:c2:92:89:79:c0:69:d8:c8:df:28:61:98:
                    1e:b3:fe:ae:2b:bd:78:a9:f7:6e:47:dc:a3:a0:16:
                    8c:85:02:c1:4e:92:fd:72:6e:f0:c8:03:29:9b:b8:
                    00:6e:c0:83:95:c8:34:20:36:9c:b3:e5:e4:e6:76:
                    73:a3:1a:ad:40:96:e0:53:54:00:ec:76:79:9a:c6:
                    0d:7e:b6:bd:29:ec:83:f3:cb:89:a4:cb:6c:00:ba:
                    0c:c5:78:0f:ff:69:b8:94:f4:04:70:43:3f:d8:9e:
                    d7:a7:fb:5d:ce:75:8e:da:e7:c4:07:b1:9d:de:6f:
                    88:4b:b6:4d:9a:cf:f9:bc:fa:9f:cd:32:6d:f6:3a:
                    0b:0d:23:42:78:ec:97:42:bf:0e:4d:60:56:e1:d3:
                    02:f2:19:cb:84:57:90:e5:70:a1:a2:83:35:86:e2:
                    da:86:9f:f9:8a:c4:79:b3:52:28:da:cb:bb:34:ca:
                    d3:da:91:4a:cf:8d:76:a2:b2:6b:9b:f9:96:fd:09:
                    2a:da:11:23:4d:f0:cb:d6:b2:b1:0e:12:6c:9a:19:
                    65:98:87:ca:e4:ee:24:ce:44:ac:90:8f:9d:1b:c5:
                    2a:9d
                Exponent: 65537 (0x10001)
        X509v3 extensions:
            X509v3 Key Usage: 
                Digital Signature, Key Encipherment
            X509v3 Basic Constraints: 
                CA:FALSE
            Netscape Cert Type: 
                SSL Server
            Netscape Comment: 
                OpenSSL Generated Server Certificate
            X509v3 Subject Key Identifier: 
                4D:07:90:AD:FF:1D:0D:E7:1A:DD:D6:2E:FA:BA:34:CB:AA:1F:24:C6
            X509v3 Authority Key Identifier: 
                keyid:F4:A7:C0:CC:91:46:AF:64:F3:91:F2:27:F8:C8:B2:6F:8A:87:32:73
                DirName:/C=DE/ST=Hessen/O=privacyidea/CN=CA001
                serial:FB:C8:EB:AC:83:CD:12:07

            X509v3 Extended Key Usage: 
                TLS Web Server Authentication
    Signature Algorithm: sha256WithRSAEncryption
         98:ca:09:9d:d9:ef:03:c7:23:74:52:b6:eb:7d:f2:fc:f9:9b:
         32:c2:3a:99:a8:c3:11:d3:d7:5b:c7:f9:47:7c:db:63:fb:7b:
         e1:7e:4a:0e:4e:a0:05:5c:7a:71:ab:be:e3:9c:9d:8a:48:c5:
         be:fc:1f:88:39:cd:74:4a:83:63:ee:2d:48:f3:17:ec:a8:80:
         54:e1:64:62:ca:86:f6:12:a4:c7:d7:b4:84:38:93:47:75:5a:
         43:25:86:c3:83:50:1d:ec:8e:2e:ac:e9:4f:cb:e3:8a:8c:e8:
         77:b9:1e:c8:50:b5:a1:e0:70:f4:a3:89:a8:7c:0e:92:c6:6b:
         20:8c:4b:30:17:a6:07:93:50:db:05:ea:3d:42:87:e0:77:61:
         d2:fd:cc:5a:5b:c1:6e:d5:5b:7f:11:4a:e9:93:42:05:2c:ff:
         78:a8:c2:9a:73:d5:6c:27:53:ec:f7:4d:a6:ae:e9:dc:74:6f:
         de:a6:dd:15:ee:73:02:93:ef:38:07:c8:fb:f9:00:e8:f4:4e:
         eb:26:36:6d:8c:5d:d8:22:ff:33:89:82:45:9e:6f:f3:47:fa:
         5e:74:73:dd:a9:5e:53:04:25:9d:05:ad:6d:95:49:5c:66:90:
         20:6c:ba:ab:a2:1d:4a:a4:86:39:be:a2:7b:3a:94:d6:c2:8c:
         7c:7c:8e:9e
-----BEGIN CERTIFICATE-----
MIIEDzCCAvegAwIBAgIEEAAA3TANBgkqhkiG9w0BAQsFADBEMQswCQYDVQQGEwJE
RTEPMA0GA1UECAwGSGVzc2VuMRQwEgYDVQQKDAtwcml2YWN5aWRlYTEOMAwGA1UE
AwwFQ0EwMDEwHhcNMTkwMTI5MTQ1NDQzWhcNMjAwMTI5MTQ1NDQzWjA9MSUwIwYD
VQQDDBxzZWxmc2VydmljZSxDTj11c2VyLE89cmVhbG0xMRQwEgYJKoZIhvcNAQkB
FgVtZWluZTCCASIwDQYJKoZIhvcNAQEBBQADggEPADCCAQoCggEBAM881DMOEsTm
2s22VqEcJrsmHIpKc6hYirYes4uZ0h0HwpKJecBp2MjfKGGYHrP+riu9eKn3bkfc
o6AWjIUCwU6S/XJu8MgDKZu4AG7Ag5XINCA2nLPl5OZ2c6MarUCW4FNUAOx2eZrG
DX62vSnsg/PLiaTLbAC6DMV4D/9puJT0BHBDP9ie16f7Xc51jtrnxAexnd5viEu2
TZrP+bz6n80ybfY6Cw0jQnjsl0K/Dk1gVuHTAvIZy4RXkOVwoaKDNYbi2oaf+YrE
ebNSKNrLuzTK09qRSs+NdqKya5v5lv0JKtoRI03wy9aysQ4SbJoZZZiHyuTuJM5E
rJCPnRvFKp0CAwEAAaOCAQ4wggEKMAsGA1UdDwQEAwIFoDAJBgNVHRMEAjAAMBEG
CWCGSAGG+EIBAQQEAwIGQDAzBglghkgBhvhCAQ0EJhYkT3BlblNTTCBHZW5lcmF0
ZWQgU2VydmVyIENlcnRpZmljYXRlMB0GA1UdDgQWBBRNB5Ct/x0N5xrd1i76ujTL
qh8kxjB0BgNVHSMEbTBrgBT0p8DMkUavZPOR8if4yLJviocyc6FIpEYwRDELMAkG
A1UEBhMCREUxDzANBgNVBAgMBkhlc3NlbjEUMBIGA1UECgwLcHJpdmFjeWlkZWEx
DjAMBgNVBAMMBUNBMDAxggkA+8jrrIPNEgcwEwYDVR0lBAwwCgYIKwYBBQUHAwEw
DQYJKoZIhvcNAQELBQADggEBAJjKCZ3Z7wPHI3RStut98vz5mzLCOpmowxHT11vH
+Ud822P7e+F+Sg5OoAVcenGrvuOcnYpIxb78H4g5zXRKg2PuLUjzF+yogFThZGLK
hvYSpMfXtIQ4k0d1WkMlhsODUB3sji6s6U/L44qM6He5HshQtaHgcPSjiah8DpLG
ayCMSzAXpgeTUNsF6j1Ch+B3YdL9zFpbwW7VW38RSumTQgUs/3iowppz1WwnU+z3
Taau6dx0b96m3RXucwKT7zgHyPv5AOj0TusmNm2MXdgi/zOJgkWeb/NH+l50c92p
XlMEJZ0FrW2VSVxmkCBsuquiHUqkhjm+ons6lNbCjHx8jp4=
-----END CERTIFICATE-----
