Certificate:
    Data:
        Version: 3 (0x2)
        Serial Number: 268435684 (0x100000e4)
    Signature Algorithm: sha256WithRSAEncryption
        Issuer: C=DE, ST=Hessen, O=privacyidea, CN=CA001
        Validity
            Not Before: Jan  9 19:33:14 2019 GMT
            Not After : Jan  9 19:33:14 2020 GMT
        Subject: C=DE, ST=Hessen, O=privacyidea, CN=requester.localdomain
        Subject Public Key Info:
            Public Key Algorithm: rsaEncryption
                Public-Key: (2048 bit)
                Modulus:
                    00:cd:be:14:4f:fa:ce:01:3f:42:22:1b:1d:9c:af:
                    dd:92:d2:7f:db:6c:b7:3e:39:43:43:6b:13:03:f1:
                    05:f4:07:74:bc:76:69:28:0b:af:19:8e:d7:fc:e3:
                    cd:c6:58:f2:ca:7f:08:6d:53:fc:07:02:44:24:c6:
                    b4:34:4c:8c:04:fe:33:0e:40:e2:20:ba:02:73:5a:
                    f7:f5:4f:63:6e:cc:c6:b6:df:54:1d:37:39:7d:51:
                    36:26:5f:bd:dc:3f:a8:8b:6b:a2:ae:b6:9d:d6:21:
                    e7:df:41:b8:7a:28:2a:68:48:ca:a8:2d:ed:e1:e9:
                    46:5e:5a:72:6d:b4:84:38:87:91:fd:94:11:0b:28:
                    84:c6:c2:2f:2a:fb:01:f9:36:7a:09:75:d1:33:88:
                    3c:73:41:5b:c8:bf:94:89:70:a1:f0:c0:b9:2e:50:
                    53:1e:b1:17:64:69:f4:2d:81:e0:a9:0d:0e:32:e9:
                    ba:55:8a:85:f1:1b:6f:49:79:b4:7f:88:c3:0d:3e:
                    54:88:9b:3d:1f:38:8c:04:f3:ee:6a:63:2b:f5:c6:
                    db:b4:83:aa:c4:78:41:3a:7d:4b:e1:c8:3e:71:ca:
                    1b:61:59:ea:c6:c4:ca:32:5e:c9:e9:bf:12:29:e6:
                    c6:c3:63:fe:a0:55:da:7a:f1:60:98:4d:26:ed:fa:
                    70:2d
                Exponent: 65537 (0x10001)
        X509v3 extensions:
            X509v3 Key Usage: 
                Digital Signature, Key Encipherment
            X509v3 Basic Constraints: 
                CA:FALSE
            Netscape Cert Type: 
                SSL Server
            Netscape Comment: 
                OpenSSL Generated Server Certificate
            X509v3 Subject Key Identifier: 
                53:3F:ED:5D:09:07:B3:65:7B:AB:45:C9:24:5B:09:77:80:0A:96:ED
            X509v3 Authority Key Identifier: 
                keyid:F4:A7:C0:CC:91:46:AF:64:F3:91:F2:27:F8:C8:B2:6F:8A:87:32:73
                DirName:/C=DE/ST=Hessen/O=privacyidea/CN=CA001
                serial:FB:C8:EB:AC:83:CD:12:07

            X509v3 Extended Key Usage: 
                TLS Web Server Authentication
    Signature Algorithm: sha256WithRSAEncryption
         2a:90:32:22:5a:d0:d4:f7:0b:01:c2:c2:8f:23:60:ea:7b:94:
         1e:0f:5c:1c:e2:1c:17:15:ad:3c:31:47:b8:0c:08:f3:9e:ac:
         8d:80:33:e0:15:50:b2:2c:ec:3e:e4:00:5a:ac:22:39:1f:d9:
         dd:02:22:dc:90:47:c3:28:33:17:89:3d:b2:9c:c7:55:4b:66:
         80:e1:12:eb:c1:4d:ce:18:11:43:27:1f:ea:af:c1:e1:27:9e:
         40:aa:2f:56:76:76:43:10:d7:f4:ff:67:15:04:d6:92:e6:98:
         31:ab:24:0d:37:d6:70:1b:29:fe:56:35:8f:df:9e:58:71:46:
         22:a3:85:4a:dd:1d:a2:83:0d:49:59:6b:3d:ac:7d:00:f6:aa:
         fb:a7:8c:ef:55:89:14:49:8b:82:d3:4e:71:aa:0e:f1:ae:d2:
         47:91:dc:99:62:b3:a1:eb:80:20:9a:49:41:8b:ea:e7:4e:04:
         4d:96:4d:43:42:c0:1a:4f:be:2a:91:6b:ba:b7:30:83:d2:d0:
         d9:fe:97:cb:a3:12:b9:5b:de:ff:1a:ef:51:cb:d9:cd:83:bd:
         dd:05:32:55:82:42:d2:88:01:2f:44:56:46:13:2f:2a:e0:2d:
         9d:f1:dd:09:9d:92:f9:76:5f:79:c9:1a:ae:d3:72:a4:c0:3d:
         df:86:52:e1
-----BEGIN CERTIFICATE-----
MIIEJjCCAw6gAwIBAgIEEAAA5DANBgkqhkiG9w0BAQsFADBEMQswCQYDVQQGEwJE
RTEPMA0GA1UECAwGSGVzc2VuMRQwEgYDVQQKDAtwcml2YWN5aWRlYTEOMAwGA1UE
AwwFQ0EwMDEwHhcNMTkwMTA5MTkzMzE0WhcNMjAwMTA5MTkzMzE0WjBUMQswCQYD
VQQGEwJERTEPMA0GA1UECAwGSGVzc2VuMRQwEgYDVQQKDAtwcml2YWN5aWRlYTEe
MBwGA1UEAwwVcmVxdWVzdGVyLmxvY2FsZG9tYWluMIIBIjANBgkqhkiG9w0BAQEF
AAOCAQ8AMIIBCgKCAQEAzb4UT/rOAT9CIhsdnK/dktJ/22y3PjlDQ2sTA/EF9Ad0
vHZpKAuvGY7X/OPNxljyyn8IbVP8BwJEJMa0NEyMBP4zDkDiILoCc1r39U9jbszG
tt9UHTc5fVE2Jl+93D+oi2uirrad1iHn30G4eigqaEjKqC3t4elGXlpybbSEOIeR
/ZQRCyiExsIvKvsB+TZ6CXXRM4g8c0FbyL+UiXCh8MC5LlBTHrEXZGn0LYHgqQ0O
Mum6VYqF8RtvSXm0f4jDDT5UiJs9HziMBPPuamMr9cbbtIOqxHhBOn1L4cg+ccob
YVnqxsTKMl7J6b8SKebGw2P+oFXaevFgmE0m7fpwLQIDAQABo4IBDjCCAQowCwYD
VR0PBAQDAgWgMAkGA1UdEwQCMAAwEQYJYIZIAYb4QgEBBAQDAgZAMDMGCWCGSAGG
+EIBDQQmFiRPcGVuU1NMIEdlbmVyYXRlZCBTZXJ2ZXIgQ2VydGlmaWNhdGUwHQYD
VR0OBBYEFFM/7V0JB7Nle6tFySRbCXeACpbtMHQGA1UdIwRtMGuAFPSnwMyRRq9k
85HyJ/jIsm+KhzJzoUikRjBEMQswCQYDVQQGEwJERTEPMA0GA1UECAwGSGVzc2Vu
MRQwEgYDVQQKDAtwcml2YWN5aWRlYTEOMAwGA1UEAwwFQ0EwMDGCCQD7yOusg80S
BzATBgNVHSUEDDAKBggrBgEFBQcDATANBgkqhkiG9w0BAQsFAAOCAQEAKpAyIlrQ
1PcLAcLCjyNg6nuUHg9cHOIcFxWtPDFHuAwI856sjYAz4BVQsizsPuQAWqwiOR/Z
3QIi3JBHwygzF4k9spzHVUtmgOES68FNzhgRQycf6q/B4SeeQKovVnZ2QxDX9P9n
FQTWkuaYMaskDTfWcBsp/lY1j9+eWHFGIqOFSt0dooMNSVlrPax9APaq+6eM71WJ
FEmLgtNOcaoO8a7SR5HcmWKzoeuAIJpJQYvq504ETZZNQ0LAGk++KpFrurcwg9LQ
2f6Xy6MSuVve/xrvUcvZzYO93QUyVYJC0ogBL0RWRhMvKuAtnfHdCZ2S+XZfecka
rtNypMA934ZS4Q==
-----END CERTIFICATE-----
