Certificate:
    Data:
        Version: 3 (0x2)
        Serial Number: 268435683 (0x100000e3)
    Signature Algorithm: sha256WithRSAEncryption
        Issuer: C=DE, ST=Hessen, O=privacyidea, CN=CA001
        Validity
            Not Before: Jan  9 19:28:55 2019 GMT
            Not After : Jan 28 19:28:55 2021 GMT
        Subject: CN=Steve Test/emailAddress=steve@openssl.org
        Subject Public Key Info:
            Public Key Algorithm: rsaEncryption
                Public-Key: (2048 bit)
                Modulus:
                    00:d2:81:89:20:51:48:0f:73:f4:11:32:24:d5:1f:
                    1c:fd:5c:f5:b6:e6:c5:f0:52:81:dc:d2:af:66:4a:
                    7c:93:31:61:5c:af:d1:6d:06:70:03:60:7c:72:0c:
                    88:dd:49:cd:9e:02:6c:d2:5a:d7:53:0f:f3:da:be:
                    69:64:b5:0f:0c:00:e3:b3:50:47:a3:b3:9b:ba:13:
                    50:d6:58:5a:4b:ab:39:e0:11:ca:0a:27:67:03:78:
                    22:66:6d:92:1e:1b:5c:49:ae:e6:6b:d1:8e:3b:9d:
                    06:d3:c6:ac:4d:53:43:10:ab:e8:96:c1:87:82:97:
                    99:8f:20:d3:99:12:37:31:84:e1:8a:ff:29:03:5f:
                    22:90:3e:7f:9b:e0:20:c1:ad:dc:ae:4c:39:1a:31:
                    96:17:02:8c:b2:d9:b4:0d:20:12:9b:7d:86:54:fd:
                    33:fd:c1:2a:62:46:f8:60:96:cf:6e:01:6f:22:df:
                    13:47:e7:97:ec:05:72:23:a3:62:f8:fa:ef:ac:9c:
                    72:f0:37:cb:2f:37:cf:90:a8:27:51:86:c6:d7:78:
                    08:8f:7e:25:a2:15:70:a2:fb:1c:b6:15:5e:a0:97:
                    8b:81:4c:09:28:8a:27:3b:94:bc:71:db:5b:71:37:
                    9a:2b:16:e0:6f:b5:c9:f5:4b:4f:20:ba:65:cf:af:
                    ad:ad
                Exponent: 65537 (0x10001)
        X509v3 extensions:
            X509v3 Key Usage: 
                Digital Signature, Key Encipherment
            X509v3 Basic Constraints: 
                CA:FALSE
            Netscape Cert Type: 
                SSL Server
            Netscape Comment: 
                OpenSSL Generated Server Certificate
            X509v3 Subject Key Identifier: 
                E5:25:6D:3E:AF:0D:DD:3F:4C:F2:45:19:39:D5:14:DB:7E:9C:C0:AD
            X509v3 Authority Key Identifier: 
                keyid:F4:A7:C0:CC:91:46:AF:64:F3:91:F2:27:F8:C8:B2:6F:8A:87:32:73
                DirName:/C=DE/ST=Hessen/O=privacyidea/CN=CA001
                serial:FB:C8:EB:AC:83:CD:12:07

            X509v3 Extended Key Usage: 
                TLS Web Server Authentication
    Signature Algorithm: sha256WithRSAEncryption
         03:86:42:9f:82:21:45:05:ef:ff:68:12:69:b4:30:ce:41:ce:
         0b:e7:73:fe:a4:04:a9:df:2e:5b:c3:70:7a:ff:f9:f4:00:c6:
         56:af:9c:78:2e:b3:7e:a5:fb:87:31:e0:7f:dc:64:52:9e:bb:
         b9:20:88:0d:6f:a4:79:12:37:97:2a:74:d2:47:cf:62:84:48:
         c6:de:bf:f5:af:59:93:32:99:7b:e5:dd:51:17:49:b9:86:47:
         e0:6c:88:f5:ba:9c:e0:1a:fc:ef:e0:6d:c7:54:93:54:35:90:
         62:75:8b:16:96:f1:57:a8:ba:dc:39:ef:d0:99:1c:0f:1f:9f:
         6d:4a:b7:d7:14:77:b2:01:1e:f2:54:0c:24:12:53:8c:3d:62:
         97:bd:9a:1f:d8:e1:ed:66:ef:df:e7:19:54:68:29:ec:b9:08:
         f1:7b:23:23:09:30:96:00:8d:8e:4a:a5:fd:16:70:5c:9b:81:
         ac:da:d1:55:2b:ff:37:b8:f0:b0:d2:bd:46:83:67:7d:d5:79:
         06:9f:be:ed:df:a9:f1:ab:39:16:18:97:62:a0:46:27:7f:41:
         bc:d3:2f:44:12:37:10:82:c3:1e:2b:c2:b9:7e:40:31:46:00:
         95:7c:1b:22:83:8e:98:35:6c:ef:85:c7:a2:77:b7:de:06:b7:
         16:63:d1:d8
-----BEGIN CERTIFICATE-----
MIIECTCCAvGgAwIBAgIEEAAA4zANBgkqhkiG9w0BAQsFADBEMQswCQYDVQQGEwJE
RTEPMA0GA1UECAwGSGVzc2VuMRQwEgYDVQQKDAtwcml2YWN5aWRlYTEOMAwGA1UE
AwwFQ0EwMDEwHhcNMTkwMTA5MTkyODU1WhcNMjEwMTI4MTkyODU1WjA3MRMwEQYD
VQQDDApTdGV2ZSBUZXN0MSAwHgYJKoZIhvcNAQkBFhFzdGV2ZUBvcGVuc3NsLm9y
ZzCCASIwDQYJKoZIhvcNAQEBBQADggEPADCCAQoCggEBANKBiSBRSA9z9BEyJNUf
HP1c9bbmxfBSgdzSr2ZKfJMxYVyv0W0GcANgfHIMiN1JzZ4CbNJa11MP89q+aWS1
DwwA47NQR6Ozm7oTUNZYWkurOeARygonZwN4ImZtkh4bXEmu5mvRjjudBtPGrE1T
QxCr6JbBh4KXmY8g05kSNzGE4Yr/KQNfIpA+f5vgIMGt3K5MORoxlhcCjLLZtA0g
Ept9hlT9M/3BKmJG+GCWz24BbyLfE0fnl+wFciOjYvj676yccvA3yy83z5CoJ1GG
xtd4CI9+JaIVcKL7HLYVXqCXi4FMCSiKJzuUvHHbW3E3misW4G+1yfVLTyC6Zc+v
ra0CAwEAAaOCAQ4wggEKMAsGA1UdDwQEAwIFoDAJBgNVHRMEAjAAMBEGCWCGSAGG
+EIBAQQEAwIGQDAzBglghkgBhvhCAQ0EJhYkT3BlblNTTCBHZW5lcmF0ZWQgU2Vy
dmVyIENlcnRpZmljYXRlMB0GA1UdDgQWBBTlJW0+rw3dP0zyRRk51RTbfpzArTB0
BgNVHSMEbTBrgBT0p8DMkUavZPOR8if4yLJviocyc6FIpEYwRDELMAkGA1UEBhMC
REUxDzANBgNVBAgMBkhlc3NlbjEUMBIGA1UECgwLcHJpdmFjeWlkZWExDjAMBgNV
BAMMBUNBMDAxggkA+8jrrIPNEgcwEwYDVR0lBAwwCgYIKwYBBQUHAwEwDQYJKoZI
hvcNAQELBQADggEBAAOGQp+CIUUF7/9oEmm0MM5Bzgvnc/6kBKnfLlvDcHr/+fQA
xlavnHgus36l+4cx4H/cZFKeu7kgiA1vpHkSN5cqdNJHz2KESMbev/WvWZMymXvl
3VEXSbmGR+BsiPW6nOAa/O/gbcdUk1Q1kGJ1ixaW8Veoutw579CZHA8fn21Kt9cU
d7IBHvJUDCQSU4w9Ype9mh/Y4e1m79/nGVRoKey5CPF7IyMJMJYAjY5Kpf0WcFyb
gaza0VUr/ze48LDSvUaDZ33VeQafvu3fqfGrORYYl2KgRid/QbzTL0QSNxCCwx4r
wrl+QDFGAJV8GyKDjpg1bO+Fx6J3t94GtxZj0dg=
-----END CERTIFICATE-----
