Certificate:
    Data:
        Version: 3 (0x2)
        Serial Number: 268435678 (0x100000de)
    Signature Algorithm: sha256WithRSAEncryption
        Issuer: C=DE, ST=Hessen, O=privacyidea, CN=CA001
        Validity
            Not Before: Jan 27 08:22:09 2019 GMT
            Not After : Jan 27 08:22:09 2020 GMT
        Subject: OU=realm1, CN=cornelius/emailAddress=user@localhost.localdomain
        Subject Public Key Info:
            Public Key Algorithm: rsaEncryption
                Public-Key: (2048 bit)
                Modulus:
                    00:a6:74:f3:11:2f:bd:9b:f4:53:ee:1f:99:99:10:
                    44:10:b2:0d:7b:a6:2e:ab:10:ee:db:87:54:35:c0:
                    3e:51:c4:13:90:0e:82:7a:1c:d4:1e:45:33:d4:ba:
                    8a:f8:aa:e6:f1:9e:9e:59:71:e5:f2:ec:82:cd:82:
                    82:60:b6:fa:1c:fe:f1:b6:8e:d0:b8:de:ad:d6:c1:
                    19:06:85:40:c3:0e:d3:4d:10:e9:bf:00:63:63:70:
                    34:b6:ac:4a:d3:9e:25:a3:b7:48:8a:c6:e1:69:bc:
                    48:f9:7b:28:12:1b:63:aa:85:21:50:25:97:17:07:
                    75:42:df:ad:49:56:c4:b3:14:75:c1:bc:5e:5f:7c:
                    ad:81:39:4b:ba:e5:6b:1c:7a:e4:fd:4e:0a:f8:89:
                    d2:b8:00:f1:19:35:de:fe:0e:71:f7:34:ee:de:a6:
                    b6:0d:d9:1b:ef:60:65:9e:1c:a1:7b:a6:4c:3e:3a:
                    42:39:8a:39:45:a9:35:8b:a8:4e:75:c3:45:40:94:
                    5c:73:14:7a:90:ab:b6:af:e3:de:7a:3a:91:23:25:
                    b4:71:ae:88:84:66:d2:c9:9d:ec:01:b2:c1:09:4f:
                    09:dc:5c:82:11:ae:5d:55:35:9f:9b:08:1b:50:dc:
                    07:9f:03:82:e0:4a:b1:37:01:98:be:3f:86:c1:80:
                    6c:f9
                Exponent: 65537 (0x10001)
        X509v3 extensions:
            X509v3 Key Usage: 
                Digital Signature, Key Encipherment
            X509v3 Basic Constraints: 
                CA:FALSE
            Netscape Cert Type: 
                SSL Server
            Netscape Comment: 
                OpenSSL Generated Server Certificate
            X509v3 Subject Key Identifier: 
                C6:40:6E:D5:40:4C:11:F2:12:CC:BC:EA:ED:B6:94:30:55:4A:F2:AE
            X509v3 Authority Key Identifier: 
                keyid:F4:A7:C0:CC:91:46:AF:64:F3:91:F2:27:F8:C8:B2:6F:8A:87:32:73
                DirName:/C=DE/ST=Hessen/O=privacyidea/CN=CA001
                serial:FB:C8:EB:AC:83:CD:12:07

            X509v3 Extended Key Usage: 
                TLS Web Server Authentication
    Signature Algorithm: sha256WithRSAEncryption
         20:92:e0:42:cf:4a:9a:af:0e:e0:89:78:78:23:56:fe:d7:4d:
         ef:32:7e:25:87:37:65:6d:e8:b4:0d:c9:c3:ea:c2:89:2b:4b:
         f7:b3:87:2c:a7:57:9c:ae:34:d7:88:b1:e7:63:4e:6c:92:a6:
         85:db:5a:f6:40:ae:83:eb:cf:53:a8:da:f6:f6:5f:2f:ca:71:
         be:2e:0c:97:b2:b3:81:d7:5a:f9:f6:0f:cd:f6:e3:93:de:9e:
         40:f4:dd:f6:2a:1e:d7:a8:99:7b:ec:39:4f:59:ba:78:02:67:
         23:5f:23:ea:3b:17:6f:67:93:a7:e0:55:88:36:dc:c8:d0:fe:
         9f:00:5a:0c:90:f4:3a:30:76:4f:80:47:02:51:b9:97:c1:08:
         01:73:2e:ad:d4:87:82:dc:22:20:59:d3:06:4b:0b:76:8d:7a:
         a2:0f:58:5e:86:66:c6:bc:4d:46:07:3b:e5:ef:1b:ba:e2:96:
         c0:f0:06:fe:77:ca:b8:59:bd:f3:72:d9:ee:51:10:af:1b:a6:
         64:4a:4e:f7:8a:3e:0d:bc:15:1d:9e:33:58:bf:98:1a:9a:a4:
         38:1a:43:ae:39:2d:15:df:c2:12:d0:14:6e:4b:bf:34:75:c5:
         66:a0:76:16:c6:1b:65:a6:0c:da:68:67:ce:ce:18:a2:c6:98:
         ee:46:01:29
-----BEGIN CERTIFICATE-----
MIIEIjCCAwqgAwIBAgIEEAAA3jANBgkqhkiG9w0BAQsFADBEMQswCQYDVQQGEwJE
RTEPMA0GA1UECAwGSGVzc2VuMRQwEgYDVQQKDAtwcml2YWN5aWRlYTEOMAwGA1UE
AwwFQ0EwMDEwHhcNMTkwMTI3MDgyMjA5WhcNMjAwMTI3MDgyMjA5WjBQMQ8wDQYD
VQQLDAZyZWFsbTExEjAQBgNVBAMMCWNvcm5lbGl1czEpMCcGCSqGSIb3DQEJARYa
dXNlckBsb2NhbGhvc3QubG9jYWxkb21haW4wggEiMA0GCSqGSIb3DQEBAQUAA4IB
DwAwggEKAoIBAQCmdPMRL72b9FPuH5mZEEQQsg17pi6rEO7bh1Q1wD5RxBOQDoJ6
HNQeRTPUuor4qubxnp5ZceXy7ILNgoJgtvoc/vG2jtC43q3WwRkGhUDDDtNNEOm/
AGNjcDS2rErTniWjt0iKxuFpvEj5eygSG2OqhSFQJZcXB3VC361JVsSzFHXBvF5f
fK2BOUu65WsceuT9Tgr4idK4APEZNd7+DnH3NO7eprYN2RvvYGWeHKF7pkw+OkI5
ijlFqTWLqE51w0VAlFxzFHqQq7av4956OpEjJbRxroiEZtLJnewBssEJTwncXIIR
rl1VNZ+bCBtQ3AefA4LgSrE3AZi+P4bBgGz5AgMBAAGjggEOMIIBCjALBgNVHQ8E
BAMCBaAwCQYDVR0TBAIwADARBglghkgBhvhCAQEEBAMCBkAwMwYJYIZIAYb4QgEN
BCYWJE9wZW5TU0wgR2VuZXJhdGVkIFNlcnZlciBDZXJ0aWZpY2F0ZTAdBgNVHQ4E
FgQUxkBu1UBMEfISzLzq7baUMFVK8q4wdAYDVR0jBG0wa4AU9KfAzJFGr2TzkfIn
+Miyb4qHMnOhSKRGMEQxCzAJBgNVBAYTAkRFMQ8wDQYDVQQIDAZIZXNzZW4xFDAS
BgNVBAoMC3ByaXZhY3lpZGVhMQ4wDAYDVQQDDAVDQTAwMYIJAPvI66yDzRIHMBMG
A1UdJQQMMAoGCCsGAQUFBwMBMA0GCSqGSIb3DQEBCwUAA4IBAQAgkuBCz0qarw7g
iXh4I1b+103vMn4lhzdlbei0DcnD6sKJK0v3s4csp1ecrjTXiLHnY05skqaF21r2
QK6D689TqNr29l8vynG+LgyXsrOB11r59g/N9uOT3p5A9N32Kh7XqJl77DlPWbp4
AmcjXyPqOxdvZ5On4FWINtzI0P6fAFoMkPQ6MHZPgEcCUbmXwQgBcy6t1IeC3CIg
WdMGSwt2jXqiD1hehmbGvE1GBzvl7xu64pbA8Ab+d8q4Wb3zctnuURCvG6ZkSk73
ij4NvBUdnjNYv5gamqQ4GkOuOS0V38IS0BRuS780dcVmoHYWxhtlpgzaaGfOzhii
xpjuRgEp
-----END CERTIFICATE-----
