Certificate:
    Data:
        Version: 3 (0x2)
        Serial Number: 268435692 (0x100000ec)
    Signature Algorithm: sha256WithRSAEncryption
        Issuer: C=DE, ST=Hessen, O=privacyidea, CN=CA001
        Validity
            Not Before: Jan  9 19:49:51 2019 GMT
            Not After : Jan  9 19:49:51 2020 GMT
        Subject: OU=realm1, CN=cornelius/emailAddress=user@localhost.localdomain
        Subject Public Key Info:
            Public Key Algorithm: rsaEncryption
                Public-Key: (2048 bit)
                Modulus:
                    00:c3:66:70:a6:3a:ef:5d:fc:0d:f8:e7:a3:65:02:
                    98:74:3f:cc:7f:e3:5b:7b:2d:4a:17:b7:97:ad:46:
                    d3:77:36:9e:86:29:d7:35:a2:9e:ab:80:4f:a6:1d:
                    0c:9a:c2:3b:e2:02:ec:ef:3f:2f:cf:cf:7d:07:11:
                    51:1f:f7:dc:88:6b:90:3a:bb:7b:50:bf:17:25:c9:
                    59:3f:2d:3a:19:6d:d9:5f:93:ca:c3:97:d0:f2:f4:
                    f0:00:23:74:75:4a:74:d7:9a:65:1f:f4:5e:97:be:
                    f1:d9:2b:16:d7:85:fe:ea:3a:bb:c9:05:9c:ce:a8:
                    ad:a0:29:f8:60:e0:d2:33:ce:42:25:9e:74:66:e7:
                    ca:05:ae:ba:5b:77:4f:8b:45:b8:08:9c:b3:08:5c:
                    2d:23:29:e8:c4:db:66:40:bc:03:81:ec:0d:0f:0d:
                    25:2b:92:9e:ec:34:75:5c:53:01:67:9b:d8:8c:4f:
                    a5:9a:b7:ca:f6:6b:c3:1d:8e:23:4d:01:00:78:79:
                    71:2a:9b:ae:3c:ed:7b:84:05:52:74:3f:a7:1d:c6:
                    83:9d:74:ee:89:7c:49:8d:86:4f:04:3a:1b:bb:5b:
                    d8:a4:6e:e6:23:e3:7b:15:ca:ed:11:aa:a9:d5:94:
                    c9:27:29:e2:69:b1:cd:7e:42:dc:ac:2a:ae:8e:af:
                    ec:e5
                Exponent: 65537 (0x10001)
        X509v3 extensions:
            X509v3 Key Usage: 
                Digital Signature, Key Encipherment
            X509v3 Basic Constraints: 
                CA:FALSE
            Netscape Cert Type: 
                SSL Server
            Netscape Comment: 
                OpenSSL Generated Server Certificate
            X509v3 Subject Key Identifier: 
                68:E1:B6:BA:74:53:26:CB:5D:55:78:F5:C4:A6:27:25:00:1B:65:85
            X509v3 Authority Key Identifier: 
                keyid:F4:A7:C0:CC:91:46:AF:64:F3:91:F2:27:F8:C8:B2:6F:8A:87:32:73
                DirName:/C=DE/ST=Hessen/O=privacyidea/CN=CA001
                serial:FB:C8:EB:AC:83:CD:12:07

            X509v3 Extended Key Usage: 
                TLS Web Server Authentication
    Signature Algorithm: sha256WithRSAEncryption
         8e:8a:e8:fb:7e:7f:a9:39:9b:a5:99:2f:f6:2a:94:3a:9d:ba:
         10:82:2a:a8:e8:cd:48:f5:43:d9:ef:08:09:8b:a2:17:76:30:
         aa:77:d0:77:7e:7d:6e:58:b9:ee:05:ef:77:94:d1:ac:67:6e:
         43:5f:d1:b4:69:6e:a7:d8:92:68:ac:f4:41:2f:bd:69:c1:db:
         3e:66:02:37:53:86:f7:a9:cb:28:4f:36:92:0f:88:31:46:79:
         9d:cc:48:88:47:16:50:40:c0:11:e7:e9:30:22:b2:a0:71:9c:
         6b:c2:f6:98:69:14:72:a7:c2:10:de:d2:f8:9c:c4:a2:92:74:
         dd:62:f9:c1:de:90:dc:0a:cd:f4:2c:0b:de:94:6d:09:f3:9c:
         de:dd:a6:57:36:df:1a:78:d8:8d:d8:f9:8e:12:a5:dc:1d:99:
         40:ac:7a:ab:67:fe:81:41:44:03:a8:f2:da:e6:fc:b4:1c:d6:
         c4:00:1b:af:0a:29:c4:cd:81:0b:99:dd:b9:b2:d6:8a:b3:78:
         ea:36:6b:34:77:8c:12:e0:42:dc:cf:52:37:00:f6:2a:4f:36:
         29:79:00:45:a5:84:ce:76:01:8f:2f:c9:54:12:f6:ce:74:aa:
         d6:23:c7:8f:7a:59:3c:99:54:a8:be:a9:bc:a4:9c:eb:ca:d2:
         bb:84:ec:76
-----BEGIN CERTIFICATE-----
MIIEIjCCAwqgAwIBAgIEEAAA7DANBgkqhkiG9w0BAQsFADBEMQswCQYDVQQGEwJE
RTEPMA0GA1UECAwGSGVzc2VuMRQwEgYDVQQKDAtwcml2YWN5aWRlYTEOMAwGA1UE
AwwFQ0EwMDEwHhcNMTkwMTA5MTk0OTUxWhcNMjAwMTA5MTk0OTUxWjBQMQ8wDQYD
VQQLDAZyZWFsbTExEjAQBgNVBAMMCWNvcm5lbGl1czEpMCcGCSqGSIb3DQEJARYa
dXNlckBsb2NhbGhvc3QubG9jYWxkb21haW4wggEiMA0GCSqGSIb3DQEBAQUAA4IB
DwAwggEKAoIBAQDDZnCmOu9d/A3456NlAph0P8x/41t7LUoXt5etRtN3Np6GKdc1
op6rgE+mHQyawjviAuzvPy/Pz30HEVEf99yIa5A6u3tQvxclyVk/LToZbdlfk8rD
l9Dy9PAAI3R1SnTXmmUf9F6XvvHZKxbXhf7qOrvJBZzOqK2gKfhg4NIzzkIlnnRm
58oFrrpbd0+LRbgInLMIXC0jKejE22ZAvAOB7A0PDSUrkp7sNHVcUwFnm9iMT6Wa
t8r2a8MdjiNNAQB4eXEqm6487XuEBVJ0P6cdxoOddO6JfEmNhk8EOhu7W9ikbuYj
43sVyu0RqqnVlMknKeJpsc1+QtysKq6Or+zlAgMBAAGjggEOMIIBCjALBgNVHQ8E
BAMCBaAwCQYDVR0TBAIwADARBglghkgBhvhCAQEEBAMCBkAwMwYJYIZIAYb4QgEN
BCYWJE9wZW5TU0wgR2VuZXJhdGVkIFNlcnZlciBDZXJ0aWZpY2F0ZTAdBgNVHQ4E
FgQUaOG2unRTJstdVXj1xKYnJQAbZYUwdAYDVR0jBG0wa4AU9KfAzJFGr2TzkfIn
+Miyb4qHMnOhSKRGMEQxCzAJBgNVBAYTAkRFMQ8wDQYDVQQIDAZIZXNzZW4xFDAS
BgNVBAoMC3ByaXZhY3lpZGVhMQ4wDAYDVQQDDAVDQTAwMYIJAPvI66yDzRIHMBMG
A1UdJQQMMAoGCCsGAQUFBwMBMA0GCSqGSIb3DQEBCwUAA4IBAQCOiuj7fn+pOZul
mS/2KpQ6nboQgiqo6M1I9UPZ7wgJi6IXdjCqd9B3fn1uWLnuBe93lNGsZ25DX9G0
aW6n2JJorPRBL71pwds+ZgI3U4b3qcsoTzaSD4gxRnmdzEiIRxZQQMAR5+kwIrKg
cZxrwvaYaRRyp8IQ3tL4nMSiknTdYvnB3pDcCs30LAvelG0J85ze3aZXNt8aeNiN
2PmOEqXcHZlArHqrZ/6BQUQDqPLa5vy0HNbEABuvCinEzYELmd25staKs3jqNms0
d4wS4ELcz1I3APYqTzYpeQBFpYTOdgGPL8lUEvbOdKrWI8ePelk8mVSovqm8pJzr
ytK7hOx2
-----END CERTIFICATE-----
