Certificate:
    Data:
        Version: 3 (0x2)
        Serial Number: 268435666 (0x100000d2)
    Signature Algorithm: sha256WithRSAEncryption
        Issuer: C=DE, ST=Hessen, O=privacyidea, CN=CA001
        Validity
            Not Before: Jan 29 14:34:27 2019 GMT
            Not After : Jan 29 14:34:27 2020 GMT
        Subject: C=DE, ST=Hessen, O=privacyidea, CN=requester.localdomain
        Subject Public Key Info:
            Public Key Algorithm: rsaEncryption
                Public-Key: (2048 bit)
                Modulus:
                    00:cd:be:14:4f:fa:ce:01:3f:42:22:1b:1d:9c:af:
                    dd:92:d2:7f:db:6c:b7:3e:39:43:43:6b:13:03:f1:
                    05:f4:07:74:bc:76:69:28:0b:af:19:8e:d7:fc:e3:
                    cd:c6:58:f2:ca:7f:08:6d:53:fc:07:02:44:24:c6:
                    b4:34:4c:8c:04:fe:33:0e:40:e2:20:ba:02:73:5a:
                    f7:f5:4f:63:6e:cc:c6:b6:df:54:1d:37:39:7d:51:
                    36:26:5f:bd:dc:3f:a8:8b:6b:a2:ae:b6:9d:d6:21:
                    e7:df:41:b8:7a:28:2a:68:48:ca:a8:2d:ed:e1:e9:
                    46:5e:5a:72:6d:b4:84:38:87:91:fd:94:11:0b:28:
                    84:c6:c2:2f:2a:fb:01:f9:36:7a:09:75:d1:33:88:
                    3c:73:41:5b:c8:bf:94:89:70:a1:f0:c0:b9:2e:50:
                    53:1e:b1:17:64:69:f4:2d:81:e0:a9:0d:0e:32:e9:
                    ba:55:8a:85:f1:1b:6f:49:79:b4:7f:88:c3:0d:3e:
                    54:88:9b:3d:1f:38:8c:04:f3:ee:6a:63:2b:f5:c6:
                    db:b4:83:aa:c4:78:41:3a:7d:4b:e1:c8:3e:71:ca:
                    1b:61:59:ea:c6:c4:ca:32:5e:c9:e9:bf:12:29:e6:
                    c6:c3:63:fe:a0:55:da:7a:f1:60:98:4d:26:ed:fa:
                    70:2d
                Exponent: 65537 (0x10001)
        X509v3 extensions:
            X509v3 Key Usage: 
                Digital Signature, Key Encipherment
            X509v3 Basic Constraints: 
                CA:FALSE
            Netscape Cert Type: 
                SSL Server
            Netscape Comment: 
                OpenSSL Generated Server Certificate
            X509v3 Subject Key Identifier: 
                53:3F:ED:5D:09:07:B3:65:7B:AB:45:C9:24:5B:09:77:80:0A:96:ED
            X509v3 Authority Key Identifier: 
                keyid:F4:A7:C0:CC:91:46:AF:64:F3:91:F2:27:F8:C8:B2:6F:8A:87:32:73
                DirName:/C=DE/ST=Hessen/O=privacyidea/CN=CA001
                serial:FB:C8:EB:AC:83:CD:12:07

            X509v3 Extended Key Usage: 
                TLS Web Server Authentication
    Signature Algorithm: sha256WithRSAEncryption
         74:da:df:df:4a:2f:0f:98:16:16:22:8e:e9:bf:99:23:f1:a9:
         f2:e1:b9:75:26:e3:83:2b:b6:7b:a1:53:87:b9:ef:09:94:4f:
         76:ce:d5:7e:a0:74:9e:fe:59:0f:46:fa:01:ed:04:10:95:fa:
         b8:d3:3c:28:cd:ee:d0:1d:c1:bd:a9:15:36:a7:7e:db:62:54:
         50:a6:05:38:bb:5c:cf:a5:c7:30:6b:89:f5:7d:88:dd:6a:7f:
         fa:0e:51:b0:ec:74:27:29:5e:a4:a6:04:3f:8d:7d:1b:78:51:
         80:c5:cb:af:cc:27:1c:3c:46:82:4e:4d:17:2c:ba:89:12:d6:
         6e:37:34:90:90:1e:eb:e1:84:89:67:07:94:94:fa:f8:87:3a:
         8c:40:e5:54:c8:59:3d:42:b3:01:f0:b4:4c:5c:b2:c1:de:17:
         3b:63:f8:26:07:7c:67:6d:ea:22:c3:07:ed:04:f6:8d:44:93:
         20:e8:19:87:4e:07:fc:95:e9:3a:39:e4:9f:29:55:db:0d:5a:
         e8:07:c8:0a:9c:d6:27:69:2d:a8:f7:0a:a4:23:0b:fd:cf:2c:
         0a:63:8d:5d:ed:d2:eb:32:74:a3:15:2e:25:6f:9d:46:d4:c1:
         20:1a:7c:0c:f8:1f:ce:56:45:e0:4c:51:fc:d6:28:e5:d6:69:
         a2:49:54:59
-----BEGIN CERTIFICATE-----
MIIEJjCCAw6gAwIBAgIEEAAA0jANBgkqhkiG9w0BAQsFADBEMQswCQYDVQQGEwJE
RTEPMA0GA1UECAwGSGVzc2VuMRQwEgYDVQQKDAtwcml2YWN5aWRlYTEOMAwGA1UE
AwwFQ0EwMDEwHhcNMTkwMTI5MTQzNDI3WhcNMjAwMTI5MTQzNDI3WjBUMQswCQYD
VQQGEwJERTEPMA0GA1UECAwGSGVzc2VuMRQwEgYDVQQKDAtwcml2YWN5aWRlYTEe
MBwGA1UEAwwVcmVxdWVzdGVyLmxvY2FsZG9tYWluMIIBIjANBgkqhkiG9w0BAQEF
AAOCAQ8AMIIBCgKCAQEAzb4UT/rOAT9CIhsdnK/dktJ/22y3PjlDQ2sTA/EF9Ad0
vHZpKAuvGY7X/OPNxljyyn8IbVP8BwJEJMa0NEyMBP4zDkDiILoCc1r39U9jbszG
tt9UHTc5fVE2Jl+93D+oi2uirrad1iHn30G4eigqaEjKqC3t4elGXlpybbSEOIeR
/ZQRCyiExsIvKvsB+TZ6CXXRM4g8c0FbyL+UiXCh8MC5LlBTHrEXZGn0LYHgqQ0O
Mum6VYqF8RtvSXm0f4jDDT5UiJs9HziMBPPuamMr9cbbtIOqxHhBOn1L4cg+ccob
YVnqxsTKMl7J6b8SKebGw2P+oFXaevFgmE0m7fpwLQIDAQABo4IBDjCCAQowCwYD
VR0PBAQDAgWgMAkGA1UdEwQCMAAwEQYJYIZIAYb4QgEBBAQDAgZAMDMGCWCGSAGG
+EIBDQQmFiRPcGVuU1NMIEdlbmVyYXRlZCBTZXJ2ZXIgQ2VydGlmaWNhdGUwHQYD
VR0OBBYEFFM/7V0JB7Nle6tFySRbCXeACpbtMHQGA1UdIwRtMGuAFPSnwMyRRq9k
85HyJ/jIsm+KhzJzoUikRjBEMQswCQYDVQQGEwJERTEPMA0GA1UECAwGSGVzc2Vu
MRQwEgYDVQQKDAtwcml2YWN5aWRlYTEOMAwGA1UEAwwFQ0EwMDGCCQD7yOusg80S
BzATBgNVHSUEDDAKBggrBgEFBQcDATANBgkqhkiG9w0BAQsFAAOCAQEAdNrf30ov
D5gWFiKO6b+ZI/Gp8uG5dSbjgyu2e6FTh7nvCZRPds7VfqB0nv5ZD0b6Ae0EEJX6
uNM8KM3u0B3BvakVNqd+22JUUKYFOLtcz6XHMGuJ9X2I3Wp/+g5RsOx0JylepKYE
P419G3hRgMXLr8wnHDxGgk5NFyy6iRLWbjc0kJAe6+GEiWcHlJT6+Ic6jEDlVMhZ
PUKzAfC0TFyywd4XO2P4Jgd8Z23qIsMH7QT2jUSTIOgZh04H/JXpOjnknylV2w1a
6AfICpzWJ2ktqPcKpCML/c8sCmONXe3S6zJ0oxUuJW+dRtTBIBp8DPgfzlZF4ExR
/NYo5dZpoklUWQ==
-----END CERTIFICATE-----
