Certificate:
    Data:
        Version: 3 (0x2)
        Serial Number: 268435672 (0x100000d8)
    Signature Algorithm: sha256WithRSAEncryption
        Issuer: C=DE, ST=Hessen, O=privacyidea, CN=CA001
        Validity
            Not Before: Jan 29 14:41:48 2019 GMT
            Not After : Jan 29 14:41:48 2020 GMT
        Subject: C=DE, ST=Hessen, O=privacyidea, CN=usercert
        Subject Public Key Info:
            Public Key Algorithm: rsaEncryption
                Public-Key: (2048 bit)
                Modulus:
                    00:dc:2f:d1:5f:29:97:d4:7c:c3:53:c8:30:bd:4b:
                    67:70:2c:24:6b:b8:5e:eb:21:7a:48:12:56:7c:81:
                    5c:48:75:b6:68:eb:f6:f2:98:4e:50:51:d1:7f:6c:
                    73:f3:0a:a7:ae:be:48:5e:e5:d6:e1:d9:2a:7c:32:
                    6e:4e:fd:08:f6:5a:54:49:23:73:c3:b9:07:18:d1:
                    ef:b3:ac:f8:8a:dc:94:96:a4:90:3a:8e:74:df:e6:
                    0d:37:1b:bd:5b:b7:25:1a:56:39:da:6f:91:aa:5e:
                    1c:74:f3:f9:7c:14:01:83:12:65:76:c7:bb:fe:36:
                    5b:95:e9:72:65:83:ed:3e:98:30:71:fa:87:dd:a3:
                    36:5a:30:03:2e:26:e0:61:d1:bf:02:3f:b6:06:1f:
                    4a:89:28:1c:5c:a2:ff:4e:be:94:e6:8c:e0:da:82:
                    f1:9d:29:32:48:30:73:b4:04:f6:42:1e:be:f7:e2:
                    32:32:27:3c:9d:89:2f:70:3e:85:9a:6f:5c:c5:09:
                    c0:8c:32:2f:72:22:c9:d2:95:1f:b6:ac:72:60:72:
                    b7:82:4d:6b:ce:5b:e3:00:d0:d2:2f:58:c6:e0:10:
                    e5:51:ca:4d:3b:2e:e6:7e:ab:84:d6:56:f1:93:35:
                    a0:93:64:26:81:75:2f:91:b5:16:06:38:0b:db:cc:
                    2d:07
                Exponent: 65537 (0x10001)
        X509v3 extensions:
            X509v3 Key Usage: 
                Digital Signature, Key Encipherment
            X509v3 Basic Constraints: 
                CA:FALSE
            Netscape Cert Type: 
                SSL Server
            Netscape Comment: 
                OpenSSL Generated Server Certificate
            X509v3 Subject Key Identifier: 
                FC:14:D1:F0:4B:8D:00:90:F2:F5:B8:71:9E:4E:97:C3:92:54:AD:0B
            X509v3 Authority Key Identifier: 
                keyid:F4:A7:C0:CC:91:46:AF:64:F3:91:F2:27:F8:C8:B2:6F:8A:87:32:73
                DirName:/C=DE/ST=Hessen/O=privacyidea/CN=CA001
                serial:FB:C8:EB:AC:83:CD:12:07

            X509v3 Extended Key Usage: 
                TLS Web Server Authentication
    Signature Algorithm: sha256WithRSAEncryption
         63:40:e2:12:cd:98:00:cc:06:b6:20:17:98:6d:06:b1:6c:4b:
         ed:f9:ef:d5:a5:da:4a:77:f8:fa:89:d2:1d:e2:fd:e8:31:90:
         7a:c8:ee:d2:f5:e7:b6:b5:e8:ce:ec:11:f9:e7:09:40:79:89:
         bc:d6:82:3e:9f:fb:11:8f:78:b1:b7:9d:03:eb:09:4e:59:3c:
         3b:0a:ef:3f:1e:f3:55:55:80:f7:b0:09:b5:d1:4a:f3:5d:5c:
         19:89:a1:6d:f3:53:07:de:8a:a7:1e:68:ab:48:8b:92:7e:80:
         a0:2c:57:26:d6:cd:ba:32:fd:1c:73:79:35:6e:08:e0:eb:0a:
         a2:c6:26:b3:49:28:2d:9f:7f:04:27:6d:fc:8a:f9:02:d6:e0:
         51:a2:1b:87:ca:16:77:02:2d:08:6c:9f:87:11:2d:3e:91:84:
         c9:c4:f4:07:cf:1c:1c:51:26:59:18:85:0f:97:ec:3c:b7:31:
         6e:04:80:1f:f0:c6:29:fa:5b:a4:35:d3:2c:92:41:10:88:41:
         5d:f2:d6:5a:0c:a4:8b:f7:d7:e3:48:d8:a7:05:e7:44:f7:6e:
         a2:08:93:fb:0f:ac:91:0e:be:19:2e:21:46:8a:03:b3:06:5e:
         d0:59:b9:a4:8c:06:18:d4:23:42:5b:39:cc:04:b4:37:79:a2:
         e2:90:af:c1
-----BEGIN CERTIFICATE-----
MIIEGTCCAwGgAwIBAgIEEAAA2DANBgkqhkiG9w0BAQsFADBEMQswCQYDVQQGEwJE
RTEPMA0GA1UECAwGSGVzc2VuMRQwEgYDVQQKDAtwcml2YWN5aWRlYTEOMAwGA1UE
AwwFQ0EwMDEwHhcNMTkwMTI5MTQ0MTQ4WhcNMjAwMTI5MTQ0MTQ4WjBHMQswCQYD
VQQGEwJERTEPMA0GA1UECAwGSGVzc2VuMRQwEgYDVQQKDAtwcml2YWN5aWRlYTER
MA8GA1UEAwwIdXNlcmNlcnQwggEiMA0GCSqGSIb3DQEBAQUAA4IBDwAwggEKAoIB
AQDcL9FfKZfUfMNTyDC9S2dwLCRruF7rIXpIElZ8gVxIdbZo6/bymE5QUdF/bHPz
Cqeuvkhe5dbh2Sp8Mm5O/Qj2WlRJI3PDuQcY0e+zrPiK3JSWpJA6jnTf5g03G71b
tyUaVjnab5GqXhx08/l8FAGDEmV2x7v+NluV6XJlg+0+mDBx+ofdozZaMAMuJuBh
0b8CP7YGH0qJKBxcov9OvpTmjODagvGdKTJIMHO0BPZCHr734jIyJzydiS9wPoWa
b1zFCcCMMi9yIsnSlR+2rHJgcreCTWvOW+MA0NIvWMbgEOVRyk07LuZ+q4TWVvGT
NaCTZCaBdS+RtRYGOAvbzC0HAgMBAAGjggEOMIIBCjALBgNVHQ8EBAMCBaAwCQYD
VR0TBAIwADARBglghkgBhvhCAQEEBAMCBkAwMwYJYIZIAYb4QgENBCYWJE9wZW5T
U0wgR2VuZXJhdGVkIFNlcnZlciBDZXJ0aWZpY2F0ZTAdBgNVHQ4EFgQU/BTR8EuN
AJDy9bhxnk6Xw5JUrQswdAYDVR0jBG0wa4AU9KfAzJFGr2TzkfIn+Miyb4qHMnOh
SKRGMEQxCzAJBgNVBAYTAkRFMQ8wDQYDVQQIDAZIZXNzZW4xFDASBgNVBAoMC3By
aXZhY3lpZGVhMQ4wDAYDVQQDDAVDQTAwMYIJAPvI66yDzRIHMBMGA1UdJQQMMAoG
CCsGAQUFBwMBMA0GCSqGSIb3DQEBCwUAA4IBAQBjQOISzZgAzAa2IBeYbQaxbEvt
+e/VpdpKd/j6idId4v3oMZB6yO7S9ee2tejO7BH55wlAeYm81oI+n/sRj3ixt50D
6wlOWTw7Cu8/HvNVVYD3sAm10UrzXVwZiaFt81MH3oqnHmirSIuSfoCgLFcm1s26
Mv0cc3k1bgjg6wqixiazSSgtn38EJ238ivkC1uBRohuHyhZ3Ai0IbJ+HES0+kYTJ
xPQHzxwcUSZZGIUPl+w8tzFuBIAf8MYp+lukNdMskkEQiEFd8tZaDKSL99fjSNin
BedE926iCJP7D6yRDr4ZLiFGigOzBl7QWbmkjAYY1CNCWznMBLQ3eaLikK/B
-----END CERTIFICATE-----
