Certificate:
    Data:
        Version: 3 (0x2)
        Serial Number: 268435681 (0x100000e1)
    Signature Algorithm: sha256WithRSAEncryption
        Issuer: C=DE, ST=Hessen, O=privacyidea, CN=CA001
        Validity
            Not Before: Jan  9 19:28:54 2019 GMT
            Not After : Jan  9 19:28:54 2020 GMT
        Subject: C=DE, ST=Hessen, O=privacyidea, CN=usercert
        Subject Public Key Info:
            Public Key Algorithm: rsaEncryption
                Public-Key: (2048 bit)
                Modulus:
                    00:dc:2f:d1:5f:29:97:d4:7c:c3:53:c8:30:bd:4b:
                    67:70:2c:24:6b:b8:5e:eb:21:7a:48:12:56:7c:81:
                    5c:48:75:b6:68:eb:f6:f2:98:4e:50:51:d1:7f:6c:
                    73:f3:0a:a7:ae:be:48:5e:e5:d6:e1:d9:2a:7c:32:
                    6e:4e:fd:08:f6:5a:54:49:23:73:c3:b9:07:18:d1:
                    ef:b3:ac:f8:8a:dc:94:96:a4:90:3a:8e:74:df:e6:
                    0d:37:1b:bd:5b:b7:25:1a:56:39:da:6f:91:aa:5e:
                    1c:74:f3:f9:7c:14:01:83:12:65:76:c7:bb:fe:36:
                    5b:95:e9:72:65:83:ed:3e:98:30:71:fa:87:dd:a3:
                    36:5a:30:03:2e:26:e0:61:d1:bf:02:3f:b6:06:1f:
                    4a:89:28:1c:5c:a2:ff:4e:be:94:e6:8c:e0:da:82:
                    f1:9d:29:32:48:30:73:b4:04:f6:42:1e:be:f7:e2:
                    32:32:27:3c:9d:89:2f:70:3e:85:9a:6f:5c:c5:09:
                    c0:8c:32:2f:72:22:c9:d2:95:1f:b6:ac:72:60:72:
                    b7:82:4d:6b:ce:5b:e3:00:d0:d2:2f:58:c6:e0:10:
                    e5:51:ca:4d:3b:2e:e6:7e:ab:84:d6:56:f1:93:35:
                    a0:93:64:26:81:75:2f:91:b5:16:06:38:0b:db:cc:
                    2d:07
                Exponent: 65537 (0x10001)
        X509v3 extensions:
            X509v3 Key Usage: 
                Digital Signature, Key Encipherment
            X509v3 Basic Constraints: 
                CA:FALSE
            Netscape Cert Type: 
                SSL Server
            Netscape Comment: 
                OpenSSL Generated Server Certificate
            X509v3 Subject Key Identifier: 
                FC:14:D1:F0:4B:8D:00:90:F2:F5:B8:71:9E:4E:97:C3:92:54:AD:0B
            X509v3 Authority Key Identifier: 
                keyid:F4:A7:C0:CC:91:46:AF:64:F3:91:F2:27:F8:C8:B2:6F:8A:87:32:73
                DirName:/C=DE/ST=Hessen/O=privacyidea/CN=CA001
                serial:FB:C8:EB:AC:83:CD:12:07

            X509v3 Extended Key Usage: 
                TLS Web Server Authentication
    Signature Algorithm: sha256WithRSAEncryption
         85:73:0c:a4:ec:2e:88:60:c0:d8:38:0c:94:40:5a:a0:9c:e9:
         19:f9:12:31:01:20:70:da:97:36:88:dd:9d:47:0d:0e:94:c8:
         cc:d3:84:eb:8f:72:88:4b:f0:71:3d:e8:8f:4c:93:b9:f5:7e:
         06:de:d4:c4:18:0d:09:b5:5d:94:29:00:60:5e:2c:ae:1c:af:
         f2:da:7a:6e:41:fe:69:53:90:d0:28:d1:b2:c7:20:8e:c3:bb:
         60:35:38:dd:a7:87:d9:d7:4e:df:f7:d9:21:b5:72:2a:52:c3:
         82:47:d8:09:a1:f5:e2:3a:c5:d5:01:69:62:27:f8:82:06:7b:
         aa:01:23:0d:33:70:8c:92:3e:15:0b:ac:95:e3:a1:8a:47:e7:
         68:6e:51:14:81:af:aa:92:c8:9b:6e:3c:0c:1f:78:54:6b:64:
         7d:bc:a5:58:9a:0f:ba:8c:75:4e:df:12:70:d6:d4:9b:ee:c2:
         3c:d9:d5:a6:29:a2:06:30:af:94:03:33:c2:d0:6e:55:31:46:
         27:e4:88:58:22:ca:ae:a7:d9:13:07:4e:23:05:ad:6c:e5:8b:
         27:d5:70:09:b0:5e:28:7f:ef:71:d0:d0:63:3c:71:a4:e4:81:
         aa:4f:6b:61:34:20:a1:cf:c8:81:47:ce:68:81:b3:4a:7b:07:
         d0:91:67:48
-----BEGIN CERTIFICATE-----
MIIEGTCCAwGgAwIBAgIEEAAA4TANBgkqhkiG9w0BAQsFADBEMQswCQYDVQQGEwJE
RTEPMA0GA1UECAwGSGVzc2VuMRQwEgYDVQQKDAtwcml2YWN5aWRlYTEOMAwGA1UE
AwwFQ0EwMDEwHhcNMTkwMTA5MTkyODU0WhcNMjAwMTA5MTkyODU0WjBHMQswCQYD
VQQGEwJERTEPMA0GA1UECAwGSGVzc2VuMRQwEgYDVQQKDAtwcml2YWN5aWRlYTER
MA8GA1UEAwwIdXNlcmNlcnQwggEiMA0GCSqGSIb3DQEBAQUAA4IBDwAwggEKAoIB
AQDcL9FfKZfUfMNTyDC9S2dwLCRruF7rIXpIElZ8gVxIdbZo6/bymE5QUdF/bHPz
Cqeuvkhe5dbh2Sp8Mm5O/Qj2WlRJI3PDuQcY0e+zrPiK3JSWpJA6jnTf5g03G71b
tyUaVjnab5GqXhx08/l8FAGDEmV2x7v+NluV6XJlg+0+mDBx+ofdozZaMAMuJuBh
0b8CP7YGH0qJKBxcov9OvpTmjODagvGdKTJIMHO0BPZCHr734jIyJzydiS9wPoWa
b1zFCcCMMi9yIsnSlR+2rHJgcreCTWvOW+MA0NIvWMbgEOVRyk07LuZ+q4TWVvGT
NaCTZCaBdS+RtRYGOAvbzC0HAgMBAAGjggEOMIIBCjALBgNVHQ8EBAMCBaAwCQYD
VR0TBAIwADARBglghkgBhvhCAQEEBAMCBkAwMwYJYIZIAYb4QgENBCYWJE9wZW5T
U0wgR2VuZXJhdGVkIFNlcnZlciBDZXJ0aWZpY2F0ZTAdBgNVHQ4EFgQU/BTR8EuN
AJDy9bhxnk6Xw5JUrQswdAYDVR0jBG0wa4AU9KfAzJFGr2TzkfIn+Miyb4qHMnOh
SKRGMEQxCzAJBgNVBAYTAkRFMQ8wDQYDVQQIDAZIZXNzZW4xFDASBgNVBAoMC3By
aXZhY3lpZGVhMQ4wDAYDVQQDDAVDQTAwMYIJAPvI66yDzRIHMBMGA1UdJQQMMAoG
CCsGAQUFBwMBMA0GCSqGSIb3DQEBCwUAA4IBAQCFcwyk7C6IYMDYOAyUQFqgnOkZ
+RIxASBw2pc2iN2dRw0OlMjM04Trj3KIS/BxPeiPTJO59X4G3tTEGA0JtV2UKQBg
XiyuHK/y2npuQf5pU5DQKNGyxyCOw7tgNTjdp4fZ107f99khtXIqUsOCR9gJofXi
OsXVAWliJ/iCBnuqASMNM3CMkj4VC6yV46GKR+doblEUga+qksibbjwMH3hUa2R9
vKVYmg+6jHVO3xJw1tSb7sI82dWmKaIGMK+UAzPC0G5VMUYn5IhYIsqup9kTB04j
Ba1s5Ysn1XAJsF4of+9x0NBjPHGk5IGqT2thNCChz8iBR85ogbNKewfQkWdI
-----END CERTIFICATE-----
