Certificate:
    Data:
        Version: 3 (0x2)
        Serial Number: 268435678 (0x100000de)
    Signature Algorithm: sha256WithRSAEncryption
        Issuer: C=DE, ST=Hessen, O=privacyidea, CN=CA001
        Validity
            Not Before: Jan 17 23:12:52 2019 GMT
            Not After : Jan 17 23:12:52 2020 GMT
        Subject: CN=selfservice,CN=user,O=realm1/emailAddress=meine
        Subject Public Key Info:
            Public Key Algorithm: rsaEncryption
                Public-Key: (2048 bit)
                Modulus:
                    00:cf:3c:d4:33:0e:12:c4:e6:da:cd:b6:56:a1:1c:
                    26:bb:26:1c:8a:4a:73:a8:58:8a:b6:1e:b3:8b:99:
                    d2:1d:07:c2:92:89:79:c0:69:d8:c8:df:28:61:98:
                    1e:b3:fe:ae:2b:bd:78:a9:f7:6e:47:dc:a3:a0:16:
                    8c:85:02:c1:4e:92:fd:72:6e:f0:c8:03:29:9b:b8:
                    00:6e:c0:83:95:c8:34:20:36:9c:b3:e5:e4:e6:76:
                    73:a3:1a:ad:40:96:e0:53:54:00:ec:76:79:9a:c6:
                    0d:7e:b6:bd:29:ec:83:f3:cb:89:a4:cb:6c:00:ba:
                    0c:c5:78:0f:ff:69:b8:94:f4:04:70:43:3f:d8:9e:
                    d7:a7:fb:5d:ce:75:8e:da:e7:c4:07:b1:9d:de:6f:
                    88:4b:b6:4d:9a:cf:f9:bc:fa:9f:cd:32:6d:f6:3a:
                    0b:0d:23:42:78:ec:97:42:bf:0e:4d:60:56:e1:d3:
                    02:f2:19:cb:84:57:90:e5:70:a1:a2:83:35:86:e2:
                    da:86:9f:f9:8a:c4:79:b3:52:28:da:cb:bb:34:ca:
                    d3:da:91:4a:cf:8d:76:a2:b2:6b:9b:f9:96:fd:09:
                    2a:da:11:23:4d:f0:cb:d6:b2:b1:0e:12:6c:9a:19:
                    65:98:87:ca:e4:ee:24:ce:44:ac:90:8f:9d:1b:c5:
                    2a:9d
                Exponent: 65537 (0x10001)
        X509v3 extensions:
            X509v3 Key Usage: 
                Digital Signature, Key Encipherment
            X509v3 Basic Constraints: 
                CA:FALSE
            Netscape Cert Type: 
                SSL Server
            Netscape Comment: 
                OpenSSL Generated Server Certificate
            X509v3 Subject Key Identifier: 
                4D:07:90:AD:FF:1D:0D:E7:1A:DD:D6:2E:FA:BA:34:CB:AA:1F:24:C6
            X509v3 Authority Key Identifier: 
                keyid:F4:A7:C0:CC:91:46:AF:64:F3:91:F2:27:F8:C8:B2:6F:8A:87:32:73
                DirName:/C=DE/ST=Hessen/O=privacyidea/CN=CA001
                serial:FB:C8:EB:AC:83:CD:12:07

            X509v3 Extended Key Usage: 
                TLS Web Server Authentication
    Signature Algorithm: sha256WithRSAEncryption
         4d:34:bb:1a:79:35:8e:7c:db:c7:e9:07:f6:ee:00:f6:56:44:
         54:a5:86:c7:9e:3b:f8:e6:c8:6f:5f:21:c1:87:4d:a6:09:11:
         52:fd:91:b6:97:67:9f:67:47:70:3f:ed:7a:fc:d0:eb:8a:b7:
         91:ef:ef:38:97:17:13:90:82:7e:a0:5b:63:2c:a8:21:a4:fd:
         3a:51:42:89:40:3f:22:44:df:c0:11:6c:25:b5:04:db:3d:48:
         0e:8c:7e:63:6d:24:91:3a:40:30:ba:d2:0e:66:b6:01:1b:e4:
         60:1c:2f:d2:7c:b5:02:be:83:60:ca:bc:97:d8:17:1a:4b:3a:
         0c:85:3f:29:e3:a1:62:f3:2e:db:51:ae:a8:ff:2e:50:66:6d:
         13:28:4b:5f:af:a8:6d:88:f1:09:75:75:38:68:27:bd:9f:f4:
         59:86:3c:bf:fb:fb:3a:87:6e:2f:9c:9e:4d:07:a9:3c:13:89:
         63:78:d5:38:6c:67:3f:63:35:21:21:fb:0b:58:fb:1b:af:81:
         a3:db:9c:7b:ae:53:95:e5:80:26:42:7d:29:eb:22:d8:50:30:
         a4:e6:23:31:bd:a7:a3:bd:06:2d:3a:8d:c0:07:fa:88:dc:03:
         4e:ac:0f:02:63:60:8b:2d:a6:82:83:80:76:d5:43:9e:fc:b5:
         f7:a5:01:c7
-----BEGIN CERTIFICATE-----
MIIEDzCCAvegAwIBAgIEEAAA3jANBgkqhkiG9w0BAQsFADBEMQswCQYDVQQGEwJE
RTEPMA0GA1UECAwGSGVzc2VuMRQwEgYDVQQKDAtwcml2YWN5aWRlYTEOMAwGA1UE
AwwFQ0EwMDEwHhcNMTkwMTE3MjMxMjUyWhcNMjAwMTE3MjMxMjUyWjA9MSUwIwYD
VQQDDBxzZWxmc2VydmljZSxDTj11c2VyLE89cmVhbG0xMRQwEgYJKoZIhvcNAQkB
FgVtZWluZTCCASIwDQYJKoZIhvcNAQEBBQADggEPADCCAQoCggEBAM881DMOEsTm
2s22VqEcJrsmHIpKc6hYirYes4uZ0h0HwpKJecBp2MjfKGGYHrP+riu9eKn3bkfc
o6AWjIUCwU6S/XJu8MgDKZu4AG7Ag5XINCA2nLPl5OZ2c6MarUCW4FNUAOx2eZrG
DX62vSnsg/PLiaTLbAC6DMV4D/9puJT0BHBDP9ie16f7Xc51jtrnxAexnd5viEu2
TZrP+bz6n80ybfY6Cw0jQnjsl0K/Dk1gVuHTAvIZy4RXkOVwoaKDNYbi2oaf+YrE
ebNSKNrLuzTK09qRSs+NdqKya5v5lv0JKtoRI03wy9aysQ4SbJoZZZiHyuTuJM5E
rJCPnRvFKp0CAwEAAaOCAQ4wggEKMAsGA1UdDwQEAwIFoDAJBgNVHRMEAjAAMBEG
CWCGSAGG+EIBAQQEAwIGQDAzBglghkgBhvhCAQ0EJhYkT3BlblNTTCBHZW5lcmF0
ZWQgU2VydmVyIENlcnRpZmljYXRlMB0GA1UdDgQWBBRNB5Ct/x0N5xrd1i76ujTL
qh8kxjB0BgNVHSMEbTBrgBT0p8DMkUavZPOR8if4yLJviocyc6FIpEYwRDELMAkG
A1UEBhMCREUxDzANBgNVBAgMBkhlc3NlbjEUMBIGA1UECgwLcHJpdmFjeWlkZWEx
DjAMBgNVBAMMBUNBMDAxggkA+8jrrIPNEgcwEwYDVR0lBAwwCgYIKwYBBQUHAwEw
DQYJKoZIhvcNAQELBQADggEBAE00uxp5NY5828fpB/buAPZWRFSlhseeO/jmyG9f
IcGHTaYJEVL9kbaXZ59nR3A/7Xr80OuKt5Hv7ziXFxOQgn6gW2MsqCGk/TpRQolA
PyJE38ARbCW1BNs9SA6MfmNtJJE6QDC60g5mtgEb5GAcL9J8tQK+g2DKvJfYFxpL
OgyFPynjoWLzLttRrqj/LlBmbRMoS1+vqG2I8Ql1dThoJ72f9FmGPL/7+zqHbi+c
nk0HqTwTiWN41ThsZz9jNSEh+wtY+xuvgaPbnHuuU5XlgCZCfSnrIthQMKTmIzG9
p6O9Bi06jcAH+ojcA06sDwJjYIstpoKDgHbVQ578tfelAcc=
-----END CERTIFICATE-----
