Certificate:
    Data:
        Version: 3 (0x2)
        Serial Number: 268435667 (0x100000d3)
    Signature Algorithm: sha256WithRSAEncryption
        Issuer: C=DE, ST=Hessen, O=privacyidea, CN=CA001
        Validity
            Not Before: Jan 22 20:37:39 2019 GMT
            Not After : Jan 22 20:37:39 2020 GMT
        Subject: CN=Steve Test/emailAddress=steve@openssl.org
        Subject Public Key Info:
            Public Key Algorithm: rsaEncryption
                Public-Key: (2048 bit)
                Modulus:
                    00:d2:81:89:20:51:48:0f:73:f4:11:32:24:d5:1f:
                    1c:fd:5c:f5:b6:e6:c5:f0:52:81:dc:d2:af:66:4a:
                    7c:93:31:61:5c:af:d1:6d:06:70:03:60:7c:72:0c:
                    88:dd:49:cd:9e:02:6c:d2:5a:d7:53:0f:f3:da:be:
                    69:64:b5:0f:0c:00:e3:b3:50:47:a3:b3:9b:ba:13:
                    50:d6:58:5a:4b:ab:39:e0:11:ca:0a:27:67:03:78:
                    22:66:6d:92:1e:1b:5c:49:ae:e6:6b:d1:8e:3b:9d:
                    06:d3:c6:ac:4d:53:43:10:ab:e8:96:c1:87:82:97:
                    99:8f:20:d3:99:12:37:31:84:e1:8a:ff:29:03:5f:
                    22:90:3e:7f:9b:e0:20:c1:ad:dc:ae:4c:39:1a:31:
                    96:17:02:8c:b2:d9:b4:0d:20:12:9b:7d:86:54:fd:
                    33:fd:c1:2a:62:46:f8:60:96:cf:6e:01:6f:22:df:
                    13:47:e7:97:ec:05:72:23:a3:62:f8:fa:ef:ac:9c:
                    72:f0:37:cb:2f:37:cf:90:a8:27:51:86:c6:d7:78:
                    08:8f:7e:25:a2:15:70:a2:fb:1c:b6:15:5e:a0:97:
                    8b:81:4c:09:28:8a:27:3b:94:bc:71:db:5b:71:37:
                    9a:2b:16:e0:6f:b5:c9:f5:4b:4f:20:ba:65:cf:af:
                    ad:ad
                Exponent: 65537 (0x10001)
        X509v3 extensions:
            X509v3 Key Usage: 
                Digital Signature, Key Encipherment
            X509v3 Basic Constraints: 
                CA:FALSE
            Netscape Cert Type: 
                SSL Server
            Netscape Comment: 
                OpenSSL Generated Server Certificate
            X509v3 Subject Key Identifier: 
                E5:25:6D:3E:AF:0D:DD:3F:4C:F2:45:19:39:D5:14:DB:7E:9C:C0:AD
            X509v3 Authority Key Identifier: 
                keyid:F4:A7:C0:CC:91:46:AF:64:F3:91:F2:27:F8:C8:B2:6F:8A:87:32:73
                DirName:/C=DE/ST=Hessen/O=privacyidea/CN=CA001
                serial:FB:C8:EB:AC:83:CD:12:07

            X509v3 Extended Key Usage: 
                TLS Web Server Authentication
    Signature Algorithm: sha256WithRSAEncryption
         7d:8b:75:e3:5c:d0:49:95:9c:ab:da:5c:2e:78:6a:17:48:7f:
         9d:da:99:42:b6:f3:7d:96:fd:16:bc:79:83:e3:8f:6f:d3:60:
         43:74:8c:c6:c3:bd:70:f7:1f:a8:50:db:ce:1f:51:c6:bf:cf:
         24:53:be:8c:e1:14:d9:0f:ce:6b:20:6b:62:1a:75:5b:88:7c:
         46:47:9d:93:de:54:84:2e:d7:87:f3:5a:48:b4:69:ed:a5:7d:
         c4:ad:88:e1:9a:d0:57:a8:c6:b7:b1:84:24:e8:dc:20:12:8a:
         46:47:70:e8:4c:cc:30:0c:c5:ed:5b:84:f0:3b:30:52:b1:5f:
         87:47:5e:db:f2:3b:80:42:d3:63:47:ef:2f:63:2a:8f:9b:94:
         37:51:03:a3:f4:10:66:ed:33:43:c6:c9:bf:01:66:62:76:05:
         51:23:2a:04:95:c9:d2:f5:eb:24:b9:47:a6:e1:62:66:79:cf:
         da:a6:f2:55:c4:79:b3:d4:9c:13:0f:59:0e:98:5a:34:45:7c:
         fe:39:5b:a2:5a:ce:2c:6d:ed:e4:67:57:44:a9:98:13:a0:15:
         36:d7:db:f2:e7:32:11:83:16:54:89:51:75:e6:5a:93:8f:77:
         6f:14:14:13:69:b4:db:6f:45:5b:8c:86:f5:5c:40:fa:63:b3:
         26:52:a3:3c
-----BEGIN CERTIFICATE-----
MIIECTCCAvGgAwIBAgIEEAAA0zANBgkqhkiG9w0BAQsFADBEMQswCQYDVQQGEwJE
RTEPMA0GA1UECAwGSGVzc2VuMRQwEgYDVQQKDAtwcml2YWN5aWRlYTEOMAwGA1UE
AwwFQ0EwMDEwHhcNMTkwMTIyMjAzNzM5WhcNMjAwMTIyMjAzNzM5WjA3MRMwEQYD
VQQDDApTdGV2ZSBUZXN0MSAwHgYJKoZIhvcNAQkBFhFzdGV2ZUBvcGVuc3NsLm9y
ZzCCASIwDQYJKoZIhvcNAQEBBQADggEPADCCAQoCggEBANKBiSBRSA9z9BEyJNUf
HP1c9bbmxfBSgdzSr2ZKfJMxYVyv0W0GcANgfHIMiN1JzZ4CbNJa11MP89q+aWS1
DwwA47NQR6Ozm7oTUNZYWkurOeARygonZwN4ImZtkh4bXEmu5mvRjjudBtPGrE1T
QxCr6JbBh4KXmY8g05kSNzGE4Yr/KQNfIpA+f5vgIMGt3K5MORoxlhcCjLLZtA0g
Ept9hlT9M/3BKmJG+GCWz24BbyLfE0fnl+wFciOjYvj676yccvA3yy83z5CoJ1GG
xtd4CI9+JaIVcKL7HLYVXqCXi4FMCSiKJzuUvHHbW3E3misW4G+1yfVLTyC6Zc+v
ra0CAwEAAaOCAQ4wggEKMAsGA1UdDwQEAwIFoDAJBgNVHRMEAjAAMBEGCWCGSAGG
+EIBAQQEAwIGQDAzBglghkgBhvhCAQ0EJhYkT3BlblNTTCBHZW5lcmF0ZWQgU2Vy
dmVyIENlcnRpZmljYXRlMB0GA1UdDgQWBBTlJW0+rw3dP0zyRRk51RTbfpzArTB0
BgNVHSMEbTBrgBT0p8DMkUavZPOR8if4yLJviocyc6FIpEYwRDELMAkGA1UEBhMC
REUxDzANBgNVBAgMBkhlc3NlbjEUMBIGA1UECgwLcHJpdmFjeWlkZWExDjAMBgNV
BAMMBUNBMDAxggkA+8jrrIPNEgcwEwYDVR0lBAwwCgYIKwYBBQUHAwEwDQYJKoZI
hvcNAQELBQADggEBAH2LdeNc0EmVnKvaXC54ahdIf53amUK2832W/Ra8eYPjj2/T
YEN0jMbDvXD3H6hQ284fUca/zyRTvozhFNkPzmsga2IadVuIfEZHnZPeVIQu14fz
Wki0ae2lfcStiOGa0FeoxrexhCTo3CASikZHcOhMzDAMxe1bhPA7MFKxX4dHXtvy
O4BC02NH7y9jKo+blDdRA6P0EGbtM0PGyb8BZmJ2BVEjKgSVydL16yS5R6bhYmZ5
z9qm8lXEebPUnBMPWQ6YWjRFfP45W6Jazixt7eRnV0SpmBOgFTbX2/LnMhGDFlSJ
UXXmWpOPd28UFBNptNtvRVuMhvVcQPpjsyZSozw=
-----END CERTIFICATE-----
