Certificate:
    Data:
        Version: 3 (0x2)
        Serial Number: 268435676 (0x100000dc)
    Signature Algorithm: sha256WithRSAEncryption
        Issuer: C=DE, ST=Hessen, O=privacyidea, CN=CA001
        Validity
            Not Before: Jan 22 20:18:03 2019 GMT
            Not After : Jan 22 20:18:03 2020 GMT
        Subject: CN=selfservice,CN=user,O=realm1/emailAddress=meine
        Subject Public Key Info:
            Public Key Algorithm: rsaEncryption
                Public-Key: (2048 bit)
                Modulus:
                    00:cf:3c:d4:33:0e:12:c4:e6:da:cd:b6:56:a1:1c:
                    26:bb:26:1c:8a:4a:73:a8:58:8a:b6:1e:b3:8b:99:
                    d2:1d:07:c2:92:89:79:c0:69:d8:c8:df:28:61:98:
                    1e:b3:fe:ae:2b:bd:78:a9:f7:6e:47:dc:a3:a0:16:
                    8c:85:02:c1:4e:92:fd:72:6e:f0:c8:03:29:9b:b8:
                    00:6e:c0:83:95:c8:34:20:36:9c:b3:e5:e4:e6:76:
                    73:a3:1a:ad:40:96:e0:53:54:00:ec:76:79:9a:c6:
                    0d:7e:b6:bd:29:ec:83:f3:cb:89:a4:cb:6c:00:ba:
                    0c:c5:78:0f:ff:69:b8:94:f4:04:70:43:3f:d8:9e:
                    d7:a7:fb:5d:ce:75:8e:da:e7:c4:07:b1:9d:de:6f:
                    88:4b:b6:4d:9a:cf:f9:bc:fa:9f:cd:32:6d:f6:3a:
                    0b:0d:23:42:78:ec:97:42:bf:0e:4d:60:56:e1:d3:
                    02:f2:19:cb:84:57:90:e5:70:a1:a2:83:35:86:e2:
                    da:86:9f:f9:8a:c4:79:b3:52:28:da:cb:bb:34:ca:
                    d3:da:91:4a:cf:8d:76:a2:b2:6b:9b:f9:96:fd:09:
                    2a:da:11:23:4d:f0:cb:d6:b2:b1:0e:12:6c:9a:19:
                    65:98:87:ca:e4:ee:24:ce:44:ac:90:8f:9d:1b:c5:
                    2a:9d
                Exponent: 65537 (0x10001)
        X509v3 extensions:
            X509v3 Key Usage: 
                Digital Signature, Key Encipherment
            X509v3 Basic Constraints: 
                CA:FALSE
            Netscape Cert Type: 
                SSL Server
            Netscape Comment: 
                OpenSSL Generated Server Certificate
            X509v3 Subject Key Identifier: 
                4D:07:90:AD:FF:1D:0D:E7:1A:DD:D6:2E:FA:BA:34:CB:AA:1F:24:C6
            X509v3 Authority Key Identifier: 
                keyid:F4:A7:C0:CC:91:46:AF:64:F3:91:F2:27:F8:C8:B2:6F:8A:87:32:73
                DirName:/C=DE/ST=Hessen/O=privacyidea/CN=CA001
                serial:FB:C8:EB:AC:83:CD:12:07

            X509v3 Extended Key Usage: 
                TLS Web Server Authentication
    Signature Algorithm: sha256WithRSAEncryption
         3d:20:99:55:24:0c:19:f1:b5:63:1a:80:eb:8f:65:ae:df:19:
         ce:fc:2f:f5:40:b5:9a:40:8b:4c:d4:f5:23:43:ff:cf:ab:7a:
         aa:6e:c8:73:0f:76:b9:eb:d0:34:49:8e:78:39:6e:c5:55:96:
         cd:02:d4:d0:97:3d:62:dd:4a:23:e4:a4:59:43:6a:08:6b:4b:
         c6:e3:06:2a:29:e1:74:e1:58:41:9b:35:f1:8c:8a:72:63:a8:
         76:ad:6e:f5:a3:fe:ca:d2:13:f5:59:d4:7b:11:ce:f3:93:11:
         c5:5d:e5:a4:d3:53:10:dc:c5:23:91:37:10:0a:24:d0:c5:d9:
         e0:f2:bd:3b:bc:47:c1:12:60:75:73:b7:e4:4f:aa:b8:08:4a:
         67:36:f5:0e:6a:18:27:95:88:63:99:63:3a:29:b3:d7:50:ef:
         c1:50:0c:43:e7:cb:cb:d6:b2:d1:c2:14:f3:4c:b6:a5:c2:ca:
         39:46:64:7d:c3:3e:3c:2d:68:c1:5a:fa:42:1f:3c:5d:37:21:
         83:e1:8e:b9:1d:3a:c0:e5:e0:17:19:11:a2:d2:a4:25:bb:05:
         32:de:74:ae:ef:f8:44:9f:a9:5e:06:2e:bc:07:f2:2d:e7:c7:
         d6:aa:54:83:bf:3b:6c:c0:f5:7a:86:75:16:48:ac:aa:15:6b:
         75:f1:21:97
-----BEGIN CERTIFICATE-----
MIIEDzCCAvegAwIBAgIEEAAA3DANBgkqhkiG9w0BAQsFADBEMQswCQYDVQQGEwJE
RTEPMA0GA1UECAwGSGVzc2VuMRQwEgYDVQQKDAtwcml2YWN5aWRlYTEOMAwGA1UE
AwwFQ0EwMDEwHhcNMTkwMTIyMjAxODAzWhcNMjAwMTIyMjAxODAzWjA9MSUwIwYD
VQQDDBxzZWxmc2VydmljZSxDTj11c2VyLE89cmVhbG0xMRQwEgYJKoZIhvcNAQkB
FgVtZWluZTCCASIwDQYJKoZIhvcNAQEBBQADggEPADCCAQoCggEBAM881DMOEsTm
2s22VqEcJrsmHIpKc6hYirYes4uZ0h0HwpKJecBp2MjfKGGYHrP+riu9eKn3bkfc
o6AWjIUCwU6S/XJu8MgDKZu4AG7Ag5XINCA2nLPl5OZ2c6MarUCW4FNUAOx2eZrG
DX62vSnsg/PLiaTLbAC6DMV4D/9puJT0BHBDP9ie16f7Xc51jtrnxAexnd5viEu2
TZrP+bz6n80ybfY6Cw0jQnjsl0K/Dk1gVuHTAvIZy4RXkOVwoaKDNYbi2oaf+YrE
ebNSKNrLuzTK09qRSs+NdqKya5v5lv0JKtoRI03wy9aysQ4SbJoZZZiHyuTuJM5E
rJCPnRvFKp0CAwEAAaOCAQ4wggEKMAsGA1UdDwQEAwIFoDAJBgNVHRMEAjAAMBEG
CWCGSAGG+EIBAQQEAwIGQDAzBglghkgBhvhCAQ0EJhYkT3BlblNTTCBHZW5lcmF0
ZWQgU2VydmVyIENlcnRpZmljYXRlMB0GA1UdDgQWBBRNB5Ct/x0N5xrd1i76ujTL
qh8kxjB0BgNVHSMEbTBrgBT0p8DMkUavZPOR8if4yLJviocyc6FIpEYwRDELMAkG
A1UEBhMCREUxDzANBgNVBAgMBkhlc3NlbjEUMBIGA1UECgwLcHJpdmFjeWlkZWEx
DjAMBgNVBAMMBUNBMDAxggkA+8jrrIPNEgcwEwYDVR0lBAwwCgYIKwYBBQUHAwEw
DQYJKoZIhvcNAQELBQADggEBAD0gmVUkDBnxtWMagOuPZa7fGc78L/VAtZpAi0zU
9SND/8+reqpuyHMPdrnr0DRJjng5bsVVls0C1NCXPWLdSiPkpFlDaghrS8bjBiop
4XThWEGbNfGMinJjqHatbvWj/srSE/VZ1HsRzvOTEcVd5aTTUxDcxSORNxAKJNDF
2eDyvTu8R8ESYHVzt+RPqrgISmc29Q5qGCeViGOZYzops9dQ78FQDEPny8vWstHC
FPNMtqXCyjlGZH3DPjwtaMFa+kIfPF03IYPhjrkdOsDl4BcZEaLSpCW7BTLedK7v
+ESfqV4GLrwH8i3nx9aqVIO/O2zA9XqGdRZIrKoVa3XxIZc=
-----END CERTIFICATE-----
