Certificate:
    Data:
        Version: 3 (0x2)
        Serial Number: 268435694 (0x100000ee)
    Signature Algorithm: sha256WithRSAEncryption
        Issuer: C=DE, ST=Hessen, O=privacyidea, CN=CA001
        Validity
            Not Before: Jan  9 20:05:01 2019 GMT
            Not After : Jan  9 20:05:01 2020 GMT
        Subject: C=DE, ST=Hessen, O=privacyidea, CN=requester.localdomain
        Subject Public Key Info:
            Public Key Algorithm: rsaEncryption
                Public-Key: (2048 bit)
                Modulus:
                    00:cd:be:14:4f:fa:ce:01:3f:42:22:1b:1d:9c:af:
                    dd:92:d2:7f:db:6c:b7:3e:39:43:43:6b:13:03:f1:
                    05:f4:07:74:bc:76:69:28:0b:af:19:8e:d7:fc:e3:
                    cd:c6:58:f2:ca:7f:08:6d:53:fc:07:02:44:24:c6:
                    b4:34:4c:8c:04:fe:33:0e:40:e2:20:ba:02:73:5a:
                    f7:f5:4f:63:6e:cc:c6:b6:df:54:1d:37:39:7d:51:
                    36:26:5f:bd:dc:3f:a8:8b:6b:a2:ae:b6:9d:d6:21:
                    e7:df:41:b8:7a:28:2a:68:48:ca:a8:2d:ed:e1:e9:
                    46:5e:5a:72:6d:b4:84:38:87:91:fd:94:11:0b:28:
                    84:c6:c2:2f:2a:fb:01:f9:36:7a:09:75:d1:33:88:
                    3c:73:41:5b:c8:bf:94:89:70:a1:f0:c0:b9:2e:50:
                    53:1e:b1:17:64:69:f4:2d:81:e0:a9:0d:0e:32:e9:
                    ba:55:8a:85:f1:1b:6f:49:79:b4:7f:88:c3:0d:3e:
                    54:88:9b:3d:1f:38:8c:04:f3:ee:6a:63:2b:f5:c6:
                    db:b4:83:aa:c4:78:41:3a:7d:4b:e1:c8:3e:71:ca:
                    1b:61:59:ea:c6:c4:ca:32:5e:c9:e9:bf:12:29:e6:
                    c6:c3:63:fe:a0:55:da:7a:f1:60:98:4d:26:ed:fa:
                    70:2d
                Exponent: 65537 (0x10001)
        X509v3 extensions:
            X509v3 Key Usage: 
                Digital Signature, Key Encipherment
            X509v3 Basic Constraints: 
                CA:FALSE
            Netscape Cert Type: 
                SSL Server
            Netscape Comment: 
                OpenSSL Generated Server Certificate
            X509v3 Subject Key Identifier: 
                53:3F:ED:5D:09:07:B3:65:7B:AB:45:C9:24:5B:09:77:80:0A:96:ED
            X509v3 Authority Key Identifier: 
                keyid:F4:A7:C0:CC:91:46:AF:64:F3:91:F2:27:F8:C8:B2:6F:8A:87:32:73
                DirName:/C=DE/ST=Hessen/O=privacyidea/CN=CA001
                serial:FB:C8:EB:AC:83:CD:12:07

            X509v3 Extended Key Usage: 
                TLS Web Server Authentication
    Signature Algorithm: sha256WithRSAEncryption
         62:f1:48:2a:ea:cb:b8:b9:ab:07:3e:aa:fe:63:e3:67:d6:ff:
         29:8a:72:22:44:9d:a7:c1:95:02:16:26:b9:80:bb:37:c9:8a:
         8b:cd:50:90:1c:bb:e7:62:80:3d:34:e0:d4:71:fa:2e:69:35:
         1e:24:0a:25:6b:ab:b6:90:ff:07:d9:0c:22:f5:b7:2f:8f:c4:
         28:07:ab:4b:5b:14:82:b0:1e:86:fd:2c:67:99:c9:1a:68:1a:
         b4:73:1c:89:4a:66:73:df:13:4f:cc:0e:b5:a2:2d:b1:8e:93:
         3a:87:9b:cc:b5:d3:84:06:b5:84:ff:93:35:ef:c7:f8:8f:23:
         cb:c8:c7:07:c5:30:75:1b:d7:e0:88:08:a9:97:81:91:bb:1c:
         fb:bf:33:fb:56:22:40:16:cf:cb:10:b6:3a:58:53:f8:ad:03:
         dc:56:1f:b6:b6:70:e0:76:55:1f:3c:1d:48:ea:4e:e0:4e:59:
         fc:e1:44:c7:c9:19:39:b3:f3:76:9f:9a:7c:81:77:8f:6a:f0:
         50:43:2b:2e:38:24:24:33:65:ea:86:d6:4d:a5:c2:ea:78:39:
         71:ce:e7:61:7c:4f:77:2f:2c:e6:11:a6:56:d0:ba:17:fd:b4:
         e6:11:f6:04:dc:aa:94:8c:ce:56:9f:97:6b:68:31:9c:3b:15:
         34:d9:43:e4
-----BEGIN CERTIFICATE-----
MIIEJjCCAw6gAwIBAgIEEAAA7jANBgkqhkiG9w0BAQsFADBEMQswCQYDVQQGEwJE
RTEPMA0GA1UECAwGSGVzc2VuMRQwEgYDVQQKDAtwcml2YWN5aWRlYTEOMAwGA1UE
AwwFQ0EwMDEwHhcNMTkwMTA5MjAwNTAxWhcNMjAwMTA5MjAwNTAxWjBUMQswCQYD
VQQGEwJERTEPMA0GA1UECAwGSGVzc2VuMRQwEgYDVQQKDAtwcml2YWN5aWRlYTEe
MBwGA1UEAwwVcmVxdWVzdGVyLmxvY2FsZG9tYWluMIIBIjANBgkqhkiG9w0BAQEF
AAOCAQ8AMIIBCgKCAQEAzb4UT/rOAT9CIhsdnK/dktJ/22y3PjlDQ2sTA/EF9Ad0
vHZpKAuvGY7X/OPNxljyyn8IbVP8BwJEJMa0NEyMBP4zDkDiILoCc1r39U9jbszG
tt9UHTc5fVE2Jl+93D+oi2uirrad1iHn30G4eigqaEjKqC3t4elGXlpybbSEOIeR
/ZQRCyiExsIvKvsB+TZ6CXXRM4g8c0FbyL+UiXCh8MC5LlBTHrEXZGn0LYHgqQ0O
Mum6VYqF8RtvSXm0f4jDDT5UiJs9HziMBPPuamMr9cbbtIOqxHhBOn1L4cg+ccob
YVnqxsTKMl7J6b8SKebGw2P+oFXaevFgmE0m7fpwLQIDAQABo4IBDjCCAQowCwYD
VR0PBAQDAgWgMAkGA1UdEwQCMAAwEQYJYIZIAYb4QgEBBAQDAgZAMDMGCWCGSAGG
+EIBDQQmFiRPcGVuU1NMIEdlbmVyYXRlZCBTZXJ2ZXIgQ2VydGlmaWNhdGUwHQYD
VR0OBBYEFFM/7V0JB7Nle6tFySRbCXeACpbtMHQGA1UdIwRtMGuAFPSnwMyRRq9k
85HyJ/jIsm+KhzJzoUikRjBEMQswCQYDVQQGEwJERTEPMA0GA1UECAwGSGVzc2Vu
MRQwEgYDVQQKDAtwcml2YWN5aWRlYTEOMAwGA1UEAwwFQ0EwMDGCCQD7yOusg80S
BzATBgNVHSUEDDAKBggrBgEFBQcDATANBgkqhkiG9w0BAQsFAAOCAQEAYvFIKurL
uLmrBz6q/mPjZ9b/KYpyIkSdp8GVAhYmuYC7N8mKi81QkBy752KAPTTg1HH6Lmk1
HiQKJWurtpD/B9kMIvW3L4/EKAerS1sUgrAehv0sZ5nJGmgatHMciUpmc98TT8wO
taItsY6TOoebzLXThAa1hP+TNe/H+I8jy8jHB8UwdRvX4IgIqZeBkbsc+78z+1Yi
QBbPyxC2OlhT+K0D3FYftrZw4HZVHzwdSOpO4E5Z/OFEx8kZObPzdp+afIF3j2rw
UEMrLjgkJDNl6obWTaXC6ng5cc7nYXxPdy8s5hGmVtC6F/205hH2BNyqlIzOVp+X
a2gxnDsVNNlD5A==
-----END CERTIFICATE-----
