Certificate:
    Data:
        Version: 3 (0x2)
        Serial Number: 268435665 (0x100000d1)
    Signature Algorithm: sha256WithRSAEncryption
        Issuer: C=DE, ST=Hessen, O=privacyidea, CN=CA001
        Validity
            Not Before: Jan 22 20:37:38 2019 GMT
            Not After : Jan 22 20:37:38 2020 GMT
        Subject: C=DE, ST=Hessen, O=privacyidea, CN=requester.localdomain
        Subject Public Key Info:
            Public Key Algorithm: rsaEncryption
                Public-Key: (2048 bit)
                Modulus:
                    00:cd:be:14:4f:fa:ce:01:3f:42:22:1b:1d:9c:af:
                    dd:92:d2:7f:db:6c:b7:3e:39:43:43:6b:13:03:f1:
                    05:f4:07:74:bc:76:69:28:0b:af:19:8e:d7:fc:e3:
                    cd:c6:58:f2:ca:7f:08:6d:53:fc:07:02:44:24:c6:
                    b4:34:4c:8c:04:fe:33:0e:40:e2:20:ba:02:73:5a:
                    f7:f5:4f:63:6e:cc:c6:b6:df:54:1d:37:39:7d:51:
                    36:26:5f:bd:dc:3f:a8:8b:6b:a2:ae:b6:9d:d6:21:
                    e7:df:41:b8:7a:28:2a:68:48:ca:a8:2d:ed:e1:e9:
                    46:5e:5a:72:6d:b4:84:38:87:91:fd:94:11:0b:28:
                    84:c6:c2:2f:2a:fb:01:f9:36:7a:09:75:d1:33:88:
                    3c:73:41:5b:c8:bf:94:89:70:a1:f0:c0:b9:2e:50:
                    53:1e:b1:17:64:69:f4:2d:81:e0:a9:0d:0e:32:e9:
                    ba:55:8a:85:f1:1b:6f:49:79:b4:7f:88:c3:0d:3e:
                    54:88:9b:3d:1f:38:8c:04:f3:ee:6a:63:2b:f5:c6:
                    db:b4:83:aa:c4:78:41:3a:7d:4b:e1:c8:3e:71:ca:
                    1b:61:59:ea:c6:c4:ca:32:5e:c9:e9:bf:12:29:e6:
                    c6:c3:63:fe:a0:55:da:7a:f1:60:98:4d:26:ed:fa:
                    70:2d
                Exponent: 65537 (0x10001)
        X509v3 extensions:
            X509v3 Key Usage: 
                Digital Signature, Key Encipherment
            X509v3 Basic Constraints: 
                CA:FALSE
            Netscape Cert Type: 
                SSL Server
            Netscape Comment: 
                OpenSSL Generated Server Certificate
            X509v3 Subject Key Identifier: 
                53:3F:ED:5D:09:07:B3:65:7B:AB:45:C9:24:5B:09:77:80:0A:96:ED
            X509v3 Authority Key Identifier: 
                keyid:F4:A7:C0:CC:91:46:AF:64:F3:91:F2:27:F8:C8:B2:6F:8A:87:32:73
                DirName:/C=DE/ST=Hessen/O=privacyidea/CN=CA001
                serial:FB:C8:EB:AC:83:CD:12:07

            X509v3 Extended Key Usage: 
                TLS Web Server Authentication
    Signature Algorithm: sha256WithRSAEncryption
         26:87:f3:79:18:13:50:db:e5:a8:1d:fc:f2:e6:59:f1:26:9d:
         7f:12:58:63:9c:9f:3c:7f:30:8c:7f:f3:e9:96:d9:6b:33:af:
         da:e9:88:c6:e2:89:28:79:c5:14:2f:ec:02:b2:bd:82:ff:3d:
         97:69:97:e1:52:3d:8a:bd:3f:3b:4f:03:bc:00:b9:c3:d1:25:
         e7:af:4e:fa:00:14:93:42:c1:5c:b7:97:20:01:3b:e1:68:09:
         09:75:84:51:0d:61:1d:34:90:d8:2d:1b:66:29:cc:ea:0f:18:
         aa:c3:b2:c2:cc:16:96:c6:12:5e:4d:0a:75:c0:ab:73:76:4d:
         08:c8:4f:a9:cb:b8:96:64:3e:45:93:7b:e2:82:ee:56:39:79:
         be:59:1d:cb:99:53:cc:f5:14:54:d0:47:e8:01:cd:29:8d:37:
         70:43:2b:f8:14:72:a3:80:7d:3b:4e:27:95:3f:c7:23:25:77:
         3c:b5:7b:2d:ff:50:88:de:89:a4:92:01:da:16:d6:8b:9f:e2:
         0c:52:fe:a2:f3:7f:8a:23:e6:46:41:6c:ac:f8:47:86:a8:04:
         ac:2e:f4:c4:f2:de:f7:2f:c1:f3:9d:0b:f4:27:c8:64:6a:4e:
         82:bb:b3:a6:27:8a:08:d5:d7:54:29:14:57:e3:8b:cf:fb:d7:
         19:7a:d5:06
-----BEGIN CERTIFICATE-----
MIIEJjCCAw6gAwIBAgIEEAAA0TANBgkqhkiG9w0BAQsFADBEMQswCQYDVQQGEwJE
RTEPMA0GA1UECAwGSGVzc2VuMRQwEgYDVQQKDAtwcml2YWN5aWRlYTEOMAwGA1UE
AwwFQ0EwMDEwHhcNMTkwMTIyMjAzNzM4WhcNMjAwMTIyMjAzNzM4WjBUMQswCQYD
VQQGEwJERTEPMA0GA1UECAwGSGVzc2VuMRQwEgYDVQQKDAtwcml2YWN5aWRlYTEe
MBwGA1UEAwwVcmVxdWVzdGVyLmxvY2FsZG9tYWluMIIBIjANBgkqhkiG9w0BAQEF
AAOCAQ8AMIIBCgKCAQEAzb4UT/rOAT9CIhsdnK/dktJ/22y3PjlDQ2sTA/EF9Ad0
vHZpKAuvGY7X/OPNxljyyn8IbVP8BwJEJMa0NEyMBP4zDkDiILoCc1r39U9jbszG
tt9UHTc5fVE2Jl+93D+oi2uirrad1iHn30G4eigqaEjKqC3t4elGXlpybbSEOIeR
/ZQRCyiExsIvKvsB+TZ6CXXRM4g8c0FbyL+UiXCh8MC5LlBTHrEXZGn0LYHgqQ0O
Mum6VYqF8RtvSXm0f4jDDT5UiJs9HziMBPPuamMr9cbbtIOqxHhBOn1L4cg+ccob
YVnqxsTKMl7J6b8SKebGw2P+oFXaevFgmE0m7fpwLQIDAQABo4IBDjCCAQowCwYD
VR0PBAQDAgWgMAkGA1UdEwQCMAAwEQYJYIZIAYb4QgEBBAQDAgZAMDMGCWCGSAGG
+EIBDQQmFiRPcGVuU1NMIEdlbmVyYXRlZCBTZXJ2ZXIgQ2VydGlmaWNhdGUwHQYD
VR0OBBYEFFM/7V0JB7Nle6tFySRbCXeACpbtMHQGA1UdIwRtMGuAFPSnwMyRRq9k
85HyJ/jIsm+KhzJzoUikRjBEMQswCQYDVQQGEwJERTEPMA0GA1UECAwGSGVzc2Vu
MRQwEgYDVQQKDAtwcml2YWN5aWRlYTEOMAwGA1UEAwwFQ0EwMDGCCQD7yOusg80S
BzATBgNVHSUEDDAKBggrBgEFBQcDATANBgkqhkiG9w0BAQsFAAOCAQEAJofzeRgT
UNvlqB388uZZ8SadfxJYY5yfPH8wjH/z6ZbZazOv2umIxuKJKHnFFC/sArK9gv89
l2mX4VI9ir0/O08DvAC5w9El569O+gAUk0LBXLeXIAE74WgJCXWEUQ1hHTSQ2C0b
ZinM6g8YqsOywswWlsYSXk0KdcCrc3ZNCMhPqcu4lmQ+RZN74oLuVjl5vlkdy5lT
zPUUVNBH6AHNKY03cEMr+BRyo4B9O04nlT/HIyV3PLV7Lf9QiN6JpJIB2hbWi5/i
DFL+ovN/iiPmRkFsrPhHhqgErC70xPLe9y/B850L9CfIZGpOgruzpieKCNXXVCkU
V+OLz/vXGXrVBg==
-----END CERTIFICATE-----
