Certificate:
    Data:
        Version: 3 (0x2)
        Serial Number: 268435679 (0x100000df)
    Signature Algorithm: sha256WithRSAEncryption
        Issuer: C=DE, ST=Hessen, O=privacyidea, CN=CA001
        Validity
            Not Before: Jan  9 19:26:03 2019 GMT
            Not After : Jan  9 19:26:03 2020 GMT
        Subject: C=DE, ST=Hessen, O=privacyidea, CN=requester.localdomain
        Subject Public Key Info:
            Public Key Algorithm: rsaEncryption
                Public-Key: (2048 bit)
                Modulus:
                    00:cd:be:14:4f:fa:ce:01:3f:42:22:1b:1d:9c:af:
                    dd:92:d2:7f:db:6c:b7:3e:39:43:43:6b:13:03:f1:
                    05:f4:07:74:bc:76:69:28:0b:af:19:8e:d7:fc:e3:
                    cd:c6:58:f2:ca:7f:08:6d:53:fc:07:02:44:24:c6:
                    b4:34:4c:8c:04:fe:33:0e:40:e2:20:ba:02:73:5a:
                    f7:f5:4f:63:6e:cc:c6:b6:df:54:1d:37:39:7d:51:
                    36:26:5f:bd:dc:3f:a8:8b:6b:a2:ae:b6:9d:d6:21:
                    e7:df:41:b8:7a:28:2a:68:48:ca:a8:2d:ed:e1:e9:
                    46:5e:5a:72:6d:b4:84:38:87:91:fd:94:11:0b:28:
                    84:c6:c2:2f:2a:fb:01:f9:36:7a:09:75:d1:33:88:
                    3c:73:41:5b:c8:bf:94:89:70:a1:f0:c0:b9:2e:50:
                    53:1e:b1:17:64:69:f4:2d:81:e0:a9:0d:0e:32:e9:
                    ba:55:8a:85:f1:1b:6f:49:79:b4:7f:88:c3:0d:3e:
                    54:88:9b:3d:1f:38:8c:04:f3:ee:6a:63:2b:f5:c6:
                    db:b4:83:aa:c4:78:41:3a:7d:4b:e1:c8:3e:71:ca:
                    1b:61:59:ea:c6:c4:ca:32:5e:c9:e9:bf:12:29:e6:
                    c6:c3:63:fe:a0:55:da:7a:f1:60:98:4d:26:ed:fa:
                    70:2d
                Exponent: 65537 (0x10001)
        X509v3 extensions:
            X509v3 Key Usage: 
                Digital Signature, Key Encipherment
            X509v3 Basic Constraints: 
                CA:FALSE
            Netscape Cert Type: 
                SSL Server
            Netscape Comment: 
                OpenSSL Generated Server Certificate
            X509v3 Subject Key Identifier: 
                53:3F:ED:5D:09:07:B3:65:7B:AB:45:C9:24:5B:09:77:80:0A:96:ED
            X509v3 Authority Key Identifier: 
                keyid:F4:A7:C0:CC:91:46:AF:64:F3:91:F2:27:F8:C8:B2:6F:8A:87:32:73
                DirName:/C=DE/ST=Hessen/O=privacyidea/CN=CA001
                serial:FB:C8:EB:AC:83:CD:12:07

            X509v3 Extended Key Usage: 
                TLS Web Server Authentication
    Signature Algorithm: sha256WithRSAEncryption
         97:f6:2c:5a:39:2a:51:59:9c:cc:47:7e:41:72:fa:9b:e0:9f:
         46:40:f7:0c:51:3b:dc:31:b6:41:15:90:68:08:a0:03:20:fd:
         40:3f:26:ca:2e:9c:6b:34:5a:c4:f0:d2:05:4c:c8:48:87:3d:
         d3:04:bb:b6:8a:b6:8a:60:81:25:d5:17:5e:37:5c:f7:9f:e5:
         80:ad:a4:f8:52:2f:7a:4a:54:c9:61:e3:0c:05:95:ce:8c:3a:
         f3:4b:48:74:1d:1e:2f:0d:a6:7a:49:68:39:cc:1d:c2:25:9b:
         7f:75:7a:1e:00:dc:22:62:4c:09:11:a8:52:12:20:8b:51:0f:
         9c:06:e8:ac:04:2d:32:68:34:55:38:38:f4:5f:82:e6:96:51:
         04:4f:06:39:29:fc:28:25:7b:11:4f:46:8e:ca:95:79:b5:cf:
         ad:02:57:4e:49:77:07:25:ad:fc:1b:01:93:12:58:e3:22:e4:
         1b:5f:af:67:18:6d:68:d4:bd:bc:b9:7b:af:90:db:aa:78:f0:
         c2:59:5b:8a:c5:8d:53:a6:05:a8:d3:17:ff:1d:68:63:2b:42:
         6a:8e:8e:a5:96:5b:75:74:ce:26:6a:88:62:f5:3e:c1:56:7c:
         d0:b7:37:d1:d7:55:1b:1a:e6:b7:4f:84:63:1b:cc:be:4c:c9:
         bc:77:fb:07
-----BEGIN CERTIFICATE-----
MIIEJjCCAw6gAwIBAgIEEAAA3zANBgkqhkiG9w0BAQsFADBEMQswCQYDVQQGEwJE
RTEPMA0GA1UECAwGSGVzc2VuMRQwEgYDVQQKDAtwcml2YWN5aWRlYTEOMAwGA1UE
AwwFQ0EwMDEwHhcNMTkwMTA5MTkyNjAzWhcNMjAwMTA5MTkyNjAzWjBUMQswCQYD
VQQGEwJERTEPMA0GA1UECAwGSGVzc2VuMRQwEgYDVQQKDAtwcml2YWN5aWRlYTEe
MBwGA1UEAwwVcmVxdWVzdGVyLmxvY2FsZG9tYWluMIIBIjANBgkqhkiG9w0BAQEF
AAOCAQ8AMIIBCgKCAQEAzb4UT/rOAT9CIhsdnK/dktJ/22y3PjlDQ2sTA/EF9Ad0
vHZpKAuvGY7X/OPNxljyyn8IbVP8BwJEJMa0NEyMBP4zDkDiILoCc1r39U9jbszG
tt9UHTc5fVE2Jl+93D+oi2uirrad1iHn30G4eigqaEjKqC3t4elGXlpybbSEOIeR
/ZQRCyiExsIvKvsB+TZ6CXXRM4g8c0FbyL+UiXCh8MC5LlBTHrEXZGn0LYHgqQ0O
Mum6VYqF8RtvSXm0f4jDDT5UiJs9HziMBPPuamMr9cbbtIOqxHhBOn1L4cg+ccob
YVnqxsTKMl7J6b8SKebGw2P+oFXaevFgmE0m7fpwLQIDAQABo4IBDjCCAQowCwYD
VR0PBAQDAgWgMAkGA1UdEwQCMAAwEQYJYIZIAYb4QgEBBAQDAgZAMDMGCWCGSAGG
+EIBDQQmFiRPcGVuU1NMIEdlbmVyYXRlZCBTZXJ2ZXIgQ2VydGlmaWNhdGUwHQYD
VR0OBBYEFFM/7V0JB7Nle6tFySRbCXeACpbtMHQGA1UdIwRtMGuAFPSnwMyRRq9k
85HyJ/jIsm+KhzJzoUikRjBEMQswCQYDVQQGEwJERTEPMA0GA1UECAwGSGVzc2Vu
MRQwEgYDVQQKDAtwcml2YWN5aWRlYTEOMAwGA1UEAwwFQ0EwMDGCCQD7yOusg80S
BzATBgNVHSUEDDAKBggrBgEFBQcDATANBgkqhkiG9w0BAQsFAAOCAQEAl/YsWjkq
UVmczEd+QXL6m+CfRkD3DFE73DG2QRWQaAigAyD9QD8myi6cazRaxPDSBUzISIc9
0wS7toq2imCBJdUXXjdc95/lgK2k+FIvekpUyWHjDAWVzow680tIdB0eLw2meklo
OcwdwiWbf3V6HgDcImJMCRGoUhIgi1EPnAborAQtMmg0VTg49F+C5pZRBE8GOSn8
KCV7EU9GjsqVebXPrQJXTkl3ByWt/BsBkxJY4yLkG1+vZxhtaNS9vLl7r5Dbqnjw
wllbisWNU6YFqNMX/x1oYytCao6OpZZbdXTOJmqIYvU+wVZ80Lc30ddVGxrmt0+E
YxvMvkzJvHf7Bw==
-----END CERTIFICATE-----
