Certificate:
    Data:
        Version: 3 (0x2)
        Serial Number: 268435682 (0x100000e2)
    Signature Algorithm: sha256WithRSAEncryption
        Issuer: C=DE, ST=Hessen, O=privacyidea, CN=CA001
        Validity
            Not Before: Jan  9 19:28:55 2019 GMT
            Not After : Jan  9 19:28:55 2020 GMT
        Subject: CN=Steve Test/emailAddress=steve@openssl.org
        Subject Public Key Info:
            Public Key Algorithm: rsaEncryption
                Public-Key: (2048 bit)
                Modulus:
                    00:d2:81:89:20:51:48:0f:73:f4:11:32:24:d5:1f:
                    1c:fd:5c:f5:b6:e6:c5:f0:52:81:dc:d2:af:66:4a:
                    7c:93:31:61:5c:af:d1:6d:06:70:03:60:7c:72:0c:
                    88:dd:49:cd:9e:02:6c:d2:5a:d7:53:0f:f3:da:be:
                    69:64:b5:0f:0c:00:e3:b3:50:47:a3:b3:9b:ba:13:
                    50:d6:58:5a:4b:ab:39:e0:11:ca:0a:27:67:03:78:
                    22:66:6d:92:1e:1b:5c:49:ae:e6:6b:d1:8e:3b:9d:
                    06:d3:c6:ac:4d:53:43:10:ab:e8:96:c1:87:82:97:
                    99:8f:20:d3:99:12:37:31:84:e1:8a:ff:29:03:5f:
                    22:90:3e:7f:9b:e0:20:c1:ad:dc:ae:4c:39:1a:31:
                    96:17:02:8c:b2:d9:b4:0d:20:12:9b:7d:86:54:fd:
                    33:fd:c1:2a:62:46:f8:60:96:cf:6e:01:6f:22:df:
                    13:47:e7:97:ec:05:72:23:a3:62:f8:fa:ef:ac:9c:
                    72:f0:37:cb:2f:37:cf:90:a8:27:51:86:c6:d7:78:
                    08:8f:7e:25:a2:15:70:a2:fb:1c:b6:15:5e:a0:97:
                    8b:81:4c:09:28:8a:27:3b:94:bc:71:db:5b:71:37:
                    9a:2b:16:e0:6f:b5:c9:f5:4b:4f:20:ba:65:cf:af:
                    ad:ad
                Exponent: 65537 (0x10001)
        X509v3 extensions:
            X509v3 Key Usage: 
                Digital Signature, Key Encipherment
            X509v3 Basic Constraints: 
                CA:FALSE
            Netscape Cert Type: 
                SSL Server
            Netscape Comment: 
                OpenSSL Generated Server Certificate
            X509v3 Subject Key Identifier: 
                E5:25:6D:3E:AF:0D:DD:3F:4C:F2:45:19:39:D5:14:DB:7E:9C:C0:AD
            X509v3 Authority Key Identifier: 
                keyid:F4:A7:C0:CC:91:46:AF:64:F3:91:F2:27:F8:C8:B2:6F:8A:87:32:73
                DirName:/C=DE/ST=Hessen/O=privacyidea/CN=CA001
                serial:FB:C8:EB:AC:83:CD:12:07

            X509v3 Extended Key Usage: 
                TLS Web Server Authentication
    Signature Algorithm: sha256WithRSAEncryption
         64:33:31:e6:33:be:cd:7d:17:be:79:49:2b:85:81:df:16:87:
         24:f7:f7:5c:19:0c:55:ae:93:6d:fe:6d:c3:56:e6:9b:f5:e0:
         3a:4b:f1:08:18:e0:4a:64:80:77:cb:7a:b7:68:45:80:38:c9:
         d2:7f:a5:9a:78:32:f2:16:52:b2:2b:76:02:49:a3:9a:4c:f4:
         e9:ba:73:78:23:94:e5:2e:d8:64:6d:8c:4b:dc:b7:2d:a0:e4:
         fa:99:2e:a0:bc:19:76:eb:fb:ad:8a:73:1e:97:cf:c7:76:fe:
         aa:ed:f6:73:82:8d:e0:c0:5a:a2:d8:3a:77:d0:5e:d3:e1:e0:
         7d:22:7c:88:d0:d2:35:57:50:cd:be:59:da:40:3e:13:9e:f3:
         01:a3:41:75:21:7d:43:2b:2e:68:71:27:84:43:6f:90:46:e7:
         ca:f6:58:83:8e:d0:23:5b:93:37:ea:49:60:18:7b:61:60:da:
         67:77:64:42:c6:ba:48:32:04:33:53:fc:5d:76:0c:56:86:eb:
         84:a9:d0:cf:aa:a1:0b:a5:e0:ef:60:36:1d:f3:1f:2c:f8:86:
         8f:7e:11:c8:49:19:35:0e:b1:e3:dd:6e:41:cb:b4:f8:10:49:
         fa:d2:9c:07:24:cd:7d:9c:5f:16:1c:8a:01:44:08:f4:74:bc:
         21:82:a2:86
-----BEGIN CERTIFICATE-----
MIIECTCCAvGgAwIBAgIEEAAA4jANBgkqhkiG9w0BAQsFADBEMQswCQYDVQQGEwJE
RTEPMA0GA1UECAwGSGVzc2VuMRQwEgYDVQQKDAtwcml2YWN5aWRlYTEOMAwGA1UE
AwwFQ0EwMDEwHhcNMTkwMTA5MTkyODU1WhcNMjAwMTA5MTkyODU1WjA3MRMwEQYD
VQQDDApTdGV2ZSBUZXN0MSAwHgYJKoZIhvcNAQkBFhFzdGV2ZUBvcGVuc3NsLm9y
ZzCCASIwDQYJKoZIhvcNAQEBBQADggEPADCCAQoCggEBANKBiSBRSA9z9BEyJNUf
HP1c9bbmxfBSgdzSr2ZKfJMxYVyv0W0GcANgfHIMiN1JzZ4CbNJa11MP89q+aWS1
DwwA47NQR6Ozm7oTUNZYWkurOeARygonZwN4ImZtkh4bXEmu5mvRjjudBtPGrE1T
QxCr6JbBh4KXmY8g05kSNzGE4Yr/KQNfIpA+f5vgIMGt3K5MORoxlhcCjLLZtA0g
Ept9hlT9M/3BKmJG+GCWz24BbyLfE0fnl+wFciOjYvj676yccvA3yy83z5CoJ1GG
xtd4CI9+JaIVcKL7HLYVXqCXi4FMCSiKJzuUvHHbW3E3misW4G+1yfVLTyC6Zc+v
ra0CAwEAAaOCAQ4wggEKMAsGA1UdDwQEAwIFoDAJBgNVHRMEAjAAMBEGCWCGSAGG
+EIBAQQEAwIGQDAzBglghkgBhvhCAQ0EJhYkT3BlblNTTCBHZW5lcmF0ZWQgU2Vy
dmVyIENlcnRpZmljYXRlMB0GA1UdDgQWBBTlJW0+rw3dP0zyRRk51RTbfpzArTB0
BgNVHSMEbTBrgBT0p8DMkUavZPOR8if4yLJviocyc6FIpEYwRDELMAkGA1UEBhMC
REUxDzANBgNVBAgMBkhlc3NlbjEUMBIGA1UECgwLcHJpdmFjeWlkZWExDjAMBgNV
BAMMBUNBMDAxggkA+8jrrIPNEgcwEwYDVR0lBAwwCgYIKwYBBQUHAwEwDQYJKoZI
hvcNAQELBQADggEBAGQzMeYzvs19F755SSuFgd8WhyT391wZDFWuk23+bcNW5pv1
4DpL8QgY4EpkgHfLerdoRYA4ydJ/pZp4MvIWUrIrdgJJo5pM9Om6c3gjlOUu2GRt
jEvcty2g5PqZLqC8GXbr+62Kcx6Xz8d2/qrt9nOCjeDAWqLYOnfQXtPh4H0ifIjQ
0jVXUM2+WdpAPhOe8wGjQXUhfUMrLmhxJ4RDb5BG58r2WIOO0CNbkzfqSWAYe2Fg
2md3ZELGukgyBDNT/F12DFaG64Sp0M+qoQul4O9gNh3zHyz4ho9+EchJGTUOsePd
bkHLtPgQSfrSnAckzX2cXxYcigFECPR0vCGCooY=
-----END CERTIFICATE-----
