Certificate:
    Data:
        Version: 3 (0x2)
        Serial Number: 268435677 (0x100000dd)
    Signature Algorithm: sha256WithRSAEncryption
        Issuer: C=DE, ST=Hessen, O=privacyidea, CN=CA001
        Validity
            Not Before: Jan 17 23:03:56 2019 GMT
            Not After : Jan 17 23:03:56 2020 GMT
        Subject: OU=realm1, CN=cornelius/emailAddress=user@localhost.localdomain
        Subject Public Key Info:
            Public Key Algorithm: rsaEncryption
                Public-Key: (2048 bit)
                Modulus:
                    00:c8:55:f1:09:21:aa:4e:67:28:40:ca:d4:e1:d0:
                    4a:d9:76:3a:56:af:29:4d:4c:e5:d6:67:67:c2:fa:
                    bd:80:f0:0d:c8:db:1d:92:d7:99:8c:ab:f3:40:d7:
                    52:fe:25:8f:55:0b:2b:ce:6e:d1:7a:06:66:0a:ab:
                    40:34:e3:09:22:2f:79:d7:b3:95:07:2a:cc:ca:d8:
                    a2:bc:bd:57:07:2f:02:a4:a8:e5:8b:d4:18:ff:2c:
                    95:49:06:1d:74:a8:27:8f:4a:73:90:df:7f:ff:d4:
                    f0:fc:33:4b:58:56:cc:85:53:00:58:70:47:6d:ac:
                    87:fd:50:e6:a8:21:09:40:cb:a1:fc:cc:04:5a:e7:
                    67:bf:45:f5:ff:a7:70:bd:c3:a7:d8:76:9b:8e:25:
                    0e:63:42:8d:92:d2:7d:cd:a2:d5:67:66:ad:25:c5:
                    07:06:65:b1:c2:73:38:b1:59:15:cf:dc:ad:6a:15:
                    2f:26:ad:46:9c:62:59:cf:66:b7:de:84:53:bd:6a:
                    f8:e4:6b:b4:4f:7b:79:80:41:26:c4:b1:8f:1c:05:
                    6f:13:42:a8:97:42:a2:39:45:4e:9e:dd:f7:7d:db:
                    e6:ff:a3:c9:9a:ba:0b:33:3b:59:90:18:2a:a5:ea:
                    fd:f5:aa:7e:13:24:20:bc:66:2a:f1:11:51:d4:59:
                    fb:69
                Exponent: 65537 (0x10001)
        X509v3 extensions:
            X509v3 Key Usage: 
                Digital Signature, Key Encipherment
            X509v3 Basic Constraints: 
                CA:FALSE
            Netscape Cert Type: 
                SSL Server
            Netscape Comment: 
                OpenSSL Generated Server Certificate
            X509v3 Subject Key Identifier: 
                F4:92:15:91:BE:6D:B2:FA:DC:25:B3:30:18:1B:0D:BF:3E:88:33:60
            X509v3 Authority Key Identifier: 
                keyid:F4:A7:C0:CC:91:46:AF:64:F3:91:F2:27:F8:C8:B2:6F:8A:87:32:73
                DirName:/C=DE/ST=Hessen/O=privacyidea/CN=CA001
                serial:FB:C8:EB:AC:83:CD:12:07

            X509v3 Extended Key Usage: 
                TLS Web Server Authentication
    Signature Algorithm: sha256WithRSAEncryption
         96:24:1c:b4:7f:41:6b:6e:21:68:9b:e1:cd:d3:ab:cc:a3:b8:
         67:2e:9c:b8:c9:12:e0:2a:50:3c:fb:33:a7:56:8d:40:96:f4:
         50:a2:b0:4b:95:f6:e8:ba:ff:c2:d3:2b:38:5a:d1:ee:8a:c6:
         52:16:ab:dd:e3:43:08:15:82:57:b2:9e:b8:59:41:30:3d:83:
         bd:f0:2c:da:40:c2:c1:07:6b:ab:5e:0b:2a:58:9f:ad:bb:8c:
         4f:16:45:68:35:84:ac:6f:cc:3f:47:ba:54:f7:12:c4:23:dc:
         a7:13:45:e6:5c:8b:77:19:cc:3e:e1:ea:5a:54:12:99:b5:16:
         20:25:1b:51:93:c8:91:17:df:4c:b7:8d:89:68:5f:50:f7:91:
         33:67:9b:46:31:d5:61:87:0a:5d:30:d4:18:13:5b:84:9f:26:
         4c:83:5b:0e:0f:dd:9d:cb:2c:ee:a5:b0:f3:f2:78:76:2f:18:
         de:a3:04:5c:ce:83:10:52:bd:a4:a8:d2:fa:74:e7:67:eb:3f:
         42:e8:3c:4f:61:88:13:dd:1c:91:d5:5c:8c:eb:f9:37:14:66:
         46:30:fb:79:d2:35:5f:27:6a:92:92:dc:d9:0a:81:15:b1:d2:
         aa:4b:42:7d:69:fb:20:b5:37:87:c4:72:2c:a5:cf:27:b4:a4:
         d7:26:b5:59
-----BEGIN CERTIFICATE-----
MIIEIjCCAwqgAwIBAgIEEAAA3TANBgkqhkiG9w0BAQsFADBEMQswCQYDVQQGEwJE
RTEPMA0GA1UECAwGSGVzc2VuMRQwEgYDVQQKDAtwcml2YWN5aWRlYTEOMAwGA1UE
AwwFQ0EwMDEwHhcNMTkwMTE3MjMwMzU2WhcNMjAwMTE3MjMwMzU2WjBQMQ8wDQYD
VQQLDAZyZWFsbTExEjAQBgNVBAMMCWNvcm5lbGl1czEpMCcGCSqGSIb3DQEJARYa
dXNlckBsb2NhbGhvc3QubG9jYWxkb21haW4wggEiMA0GCSqGSIb3DQEBAQUAA4IB
DwAwggEKAoIBAQDIVfEJIapOZyhAytTh0ErZdjpWrylNTOXWZ2fC+r2A8A3I2x2S
15mMq/NA11L+JY9VCyvObtF6BmYKq0A04wkiL3nXs5UHKszK2KK8vVcHLwKkqOWL
1Bj/LJVJBh10qCePSnOQ33//1PD8M0tYVsyFUwBYcEdtrIf9UOaoIQlAy6H8zARa
52e/RfX/p3C9w6fYdpuOJQ5jQo2S0n3NotVnZq0lxQcGZbHCczixWRXP3K1qFS8m
rUacYlnPZrfehFO9avjka7RPe3mAQSbEsY8cBW8TQqiXQqI5RU6e3fd92+b/o8ma
ugszO1mQGCql6v31qn4TJCC8ZirxEVHUWftpAgMBAAGjggEOMIIBCjALBgNVHQ8E
BAMCBaAwCQYDVR0TBAIwADARBglghkgBhvhCAQEEBAMCBkAwMwYJYIZIAYb4QgEN
BCYWJE9wZW5TU0wgR2VuZXJhdGVkIFNlcnZlciBDZXJ0aWZpY2F0ZTAdBgNVHQ4E
FgQU9JIVkb5tsvrcJbMwGBsNvz6IM2AwdAYDVR0jBG0wa4AU9KfAzJFGr2TzkfIn
+Miyb4qHMnOhSKRGMEQxCzAJBgNVBAYTAkRFMQ8wDQYDVQQIDAZIZXNzZW4xFDAS
BgNVBAoMC3ByaXZhY3lpZGVhMQ4wDAYDVQQDDAVDQTAwMYIJAPvI66yDzRIHMBMG
A1UdJQQMMAoGCCsGAQUFBwMBMA0GCSqGSIb3DQEBCwUAA4IBAQCWJBy0f0FrbiFo
m+HN06vMo7hnLpy4yRLgKlA8+zOnVo1AlvRQorBLlfbouv/C0ys4WtHuisZSFqvd
40MIFYJXsp64WUEwPYO98CzaQMLBB2urXgsqWJ+tu4xPFkVoNYSsb8w/R7pU9xLE
I9ynE0XmXIt3Gcw+4epaVBKZtRYgJRtRk8iRF99Mt42JaF9Q95EzZ5tGMdVhhwpd
MNQYE1uEnyZMg1sOD92dyyzupbDz8nh2LxjeowRczoMQUr2kqNL6dOdn6z9C6DxP
YYgT3RyR1VyM6/k3FGZGMPt50jVfJ2qSktzZCoEVsdKqS0J9afsgtTeHxHIspc8n
tKTXJrVZ
-----END CERTIFICATE-----
