Certificate:
    Data:
        Version: 3 (0x2)
        Serial Number: 268435670 (0x100000d6)
    Signature Algorithm: sha256WithRSAEncryption
        Issuer: C=DE, ST=Hessen, O=privacyidea, CN=CA001
        Validity
            Not Before: Jan 22 20:42:39 2019 GMT
            Not After : Jan 22 20:42:39 2020 GMT
        Subject: OU=realm1, CN=cornelius/emailAddress=user@localhost.localdomain
        Subject Public Key Info:
            Public Key Algorithm: rsaEncryption
                Public-Key: (2048 bit)
                Modulus:
                    00:bd:bc:c4:c4:57:aa:e3:30:cd:8e:9c:62:18:0b:
                    66:60:91:f6:d7:b7:d9:bc:7f:af:6d:08:cf:07:3b:
                    35:f0:85:ae:78:9b:ce:66:8e:1c:30:3c:20:9b:2d:
                    c1:c8:6d:91:78:a9:4f:0c:d4:73:a7:fa:67:c6:fa:
                    46:ee:69:72:3a:69:97:3e:a6:ac:e7:e4:8f:38:6d:
                    2f:65:e6:e6:36:a8:bf:83:3a:b5:13:3d:eb:18:4d:
                    c0:b6:44:49:0f:fd:c9:27:96:c0:53:65:c8:73:31:
                    a2:0d:05:ea:3b:05:f7:66:01:e9:fd:42:75:c5:45:
                    b5:5e:56:da:3d:0f:9d:1b:c9:0e:be:cd:03:7b:57:
                    e9:11:cf:be:72:a1:51:9e:2c:be:6a:0a:f2:4f:c4:
                    b3:cf:35:2e:db:96:52:54:a8:ca:88:2a:03:ff:42:
                    61:ca:53:67:53:95:22:f5:c6:aa:c6:4a:33:a1:9a:
                    f7:01:12:e8:c4:ca:0a:45:78:a2:6a:bb:7a:23:2e:
                    2b:f6:b6:c0:11:5a:ed:16:49:0e:72:10:ab:33:fe:
                    3e:22:65:b0:d7:9e:86:74:b5:1a:55:79:c5:6b:80:
                    e7:85:d2:3c:da:ae:7a:3d:01:01:78:bc:cf:73:c9:
                    95:d7:8f:02:d4:60:f9:a7:38:00:a4:e9:1f:10:d7:
                    01:5b
                Exponent: 65537 (0x10001)
        X509v3 extensions:
            X509v3 Key Usage: 
                Digital Signature, Key Encipherment
            X509v3 Basic Constraints: 
                CA:FALSE
            Netscape Cert Type: 
                SSL Server
            Netscape Comment: 
                OpenSSL Generated Server Certificate
            X509v3 Subject Key Identifier: 
                22:6F:05:75:93:E0:22:57:14:F0:F2:1F:B7:01:53:EF:51:E0:BD:F9
            X509v3 Authority Key Identifier: 
                keyid:F4:A7:C0:CC:91:46:AF:64:F3:91:F2:27:F8:C8:B2:6F:8A:87:32:73
                DirName:/C=DE/ST=Hessen/O=privacyidea/CN=CA001
                serial:FB:C8:EB:AC:83:CD:12:07

            X509v3 Extended Key Usage: 
                TLS Web Server Authentication
    Signature Algorithm: sha256WithRSAEncryption
         5c:6e:44:8f:c3:d3:7c:d0:89:a1:1d:a4:05:06:f5:01:69:de:
         54:ce:d3:78:48:0f:3f:8f:28:ed:6b:e1:2a:53:87:9a:16:6b:
         69:bf:28:06:04:9b:94:16:9f:a9:27:b8:b4:c5:7b:86:73:4b:
         40:10:62:88:54:8c:0f:3d:eb:da:6e:d3:c4:e7:58:d8:1a:83:
         2f:fa:97:f6:34:9f:e0:c6:7b:6e:13:c3:14:3f:ec:60:9c:a0:
         02:2c:ff:0c:84:0b:98:f6:0c:36:8c:84:6e:6c:c5:41:08:4a:
         88:5e:3f:3f:01:4e:83:71:a4:0f:69:e5:54:64:22:44:a2:55:
         29:99:96:09:96:e8:b0:22:57:05:fc:e3:82:5b:3d:3a:d1:87:
         16:b3:5e:b2:b6:2e:83:03:33:87:f8:98:df:c8:df:87:ac:ee:
         70:a2:29:22:ac:bc:7d:b2:8e:0e:df:06:4c:bf:70:4e:b1:8e:
         70:3f:f9:9a:ed:c3:34:d2:56:6d:bf:e1:85:31:e5:53:28:f6:
         33:9f:59:52:76:b4:d7:72:63:ea:e7:6b:78:b1:54:74:28:35:
         79:4a:cc:82:de:de:2a:a6:ac:8c:fd:1c:03:31:b0:07:08:16:
         31:c5:fc:f0:bb:01:a3:5a:90:b6:99:5e:b1:18:a6:40:9c:f5:
         00:d7:c6:50
-----BEGIN CERTIFICATE-----
MIIEIjCCAwqgAwIBAgIEEAAA1jANBgkqhkiG9w0BAQsFADBEMQswCQYDVQQGEwJE
RTEPMA0GA1UECAwGSGVzc2VuMRQwEgYDVQQKDAtwcml2YWN5aWRlYTEOMAwGA1UE
AwwFQ0EwMDEwHhcNMTkwMTIyMjA0MjM5WhcNMjAwMTIyMjA0MjM5WjBQMQ8wDQYD
VQQLDAZyZWFsbTExEjAQBgNVBAMMCWNvcm5lbGl1czEpMCcGCSqGSIb3DQEJARYa
dXNlckBsb2NhbGhvc3QubG9jYWxkb21haW4wggEiMA0GCSqGSIb3DQEBAQUAA4IB
DwAwggEKAoIBAQC9vMTEV6rjMM2OnGIYC2ZgkfbXt9m8f69tCM8HOzXwha54m85m
jhwwPCCbLcHIbZF4qU8M1HOn+mfG+kbuaXI6aZc+pqzn5I84bS9l5uY2qL+DOrUT
PesYTcC2REkP/cknlsBTZchzMaINBeo7BfdmAen9QnXFRbVeVto9D50byQ6+zQN7
V+kRz75yoVGeLL5qCvJPxLPPNS7bllJUqMqIKgP/QmHKU2dTlSL1xqrGSjOhmvcB
EujEygpFeKJqu3ojLiv2tsARWu0WSQ5yEKsz/j4iZbDXnoZ0tRpVecVrgOeF0jza
rno9AQF4vM9zyZXXjwLUYPmnOACk6R8Q1wFbAgMBAAGjggEOMIIBCjALBgNVHQ8E
BAMCBaAwCQYDVR0TBAIwADARBglghkgBhvhCAQEEBAMCBkAwMwYJYIZIAYb4QgEN
BCYWJE9wZW5TU0wgR2VuZXJhdGVkIFNlcnZlciBDZXJ0aWZpY2F0ZTAdBgNVHQ4E
FgQUIm8FdZPgIlcU8PIftwFT71HgvfkwdAYDVR0jBG0wa4AU9KfAzJFGr2TzkfIn
+Miyb4qHMnOhSKRGMEQxCzAJBgNVBAYTAkRFMQ8wDQYDVQQIDAZIZXNzZW4xFDAS
BgNVBAoMC3ByaXZhY3lpZGVhMQ4wDAYDVQQDDAVDQTAwMYIJAPvI66yDzRIHMBMG
A1UdJQQMMAoGCCsGAQUFBwMBMA0GCSqGSIb3DQEBCwUAA4IBAQBcbkSPw9N80Imh
HaQFBvUBad5UztN4SA8/jyjta+EqU4eaFmtpvygGBJuUFp+pJ7i0xXuGc0tAEGKI
VIwPPevabtPE51jYGoMv+pf2NJ/gxntuE8MUP+xgnKACLP8MhAuY9gw2jIRubMVB
CEqIXj8/AU6DcaQPaeVUZCJEolUpmZYJluiwIlcF/OOCWz060YcWs16yti6DAzOH
+JjfyN+HrO5woikirLx9so4O3wZMv3BOsY5wP/ma7cM00lZtv+GFMeVTKPYzn1lS
drTXcmPq52t4sVR0KDV5SsyC3t4qpqyM/RwDMbAHCBYxxfzwuwGjWpC2mV6xGKZA
nPUA18ZQ
-----END CERTIFICATE-----
