Certificate:
    Data:
        Version: 3 (0x2)
        Serial Number: 268435675 (0x100000db)
    Signature Algorithm: sha256WithRSAEncryption
        Issuer: C=DE, ST=Hessen, O=privacyidea, CN=CA001
        Validity
            Not Before: Jan 22 20:09:35 2019 GMT
            Not After : Jan 22 20:09:35 2020 GMT
        Subject: OU=realm1, CN=cornelius/emailAddress=user@localhost.localdomain
        Subject Public Key Info:
            Public Key Algorithm: rsaEncryption
                Public-Key: (2048 bit)
                Modulus:
                    00:c4:8d:1d:41:73:0e:04:63:24:e7:85:0f:d3:e0:
                    76:28:c6:7b:f8:a8:65:27:fd:74:ca:39:9e:bc:59:
                    91:3f:af:45:d0:40:7b:99:06:f8:ec:89:4e:3a:ff:
                    04:9e:e3:bb:d4:80:0a:9f:90:75:ef:28:db:4b:3c:
                    15:d7:db:ba:b0:8f:98:05:78:e0:c1:00:50:57:a3:
                    9e:b0:f7:fc:2c:d8:eb:21:b7:31:96:e6:99:63:97:
                    d9:80:15:51:a4:4d:af:16:ff:2c:5a:28:73:58:8a:
                    73:fe:4d:f1:64:7b:5e:5b:5e:cb:41:99:14:39:e3:
                    c4:ec:b4:19:7e:87:77:9e:5b:fd:33:86:b5:19:36:
                    58:95:fa:d3:20:c3:4a:39:86:0d:0a:c5:26:7e:1e:
                    21:59:73:79:c0:e9:ae:e4:4e:63:c5:97:9e:fc:2e:
                    9b:f1:16:91:66:1d:4d:e2:cb:82:9d:e8:cc:18:14:
                    ca:34:65:a2:df:6a:92:b7:34:bb:d8:fc:91:07:63:
                    c0:91:5b:f5:82:b5:9d:13:6d:53:1c:90:f7:40:8f:
                    65:e7:35:5d:9d:5e:e3:01:4a:ef:d6:6e:ef:39:a9:
                    08:14:20:e7:6c:7b:78:e8:bb:76:73:2b:86:81:05:
                    9f:c4:be:5f:76:e6:17:28:ef:b1:f1:a7:53:57:16:
                    c6:cb
                Exponent: 65537 (0x10001)
        X509v3 extensions:
            X509v3 Key Usage: 
                Digital Signature, Key Encipherment
            X509v3 Basic Constraints: 
                CA:FALSE
            Netscape Cert Type: 
                SSL Server
            Netscape Comment: 
                OpenSSL Generated Server Certificate
            X509v3 Subject Key Identifier: 
                C9:7E:F2:BF:4F:71:EB:BD:0A:3D:CE:6E:80:26:DF:23:7F:DB:B6:DF
            X509v3 Authority Key Identifier: 
                keyid:F4:A7:C0:CC:91:46:AF:64:F3:91:F2:27:F8:C8:B2:6F:8A:87:32:73
                DirName:/C=DE/ST=Hessen/O=privacyidea/CN=CA001
                serial:FB:C8:EB:AC:83:CD:12:07

            X509v3 Extended Key Usage: 
                TLS Web Server Authentication
    Signature Algorithm: sha256WithRSAEncryption
         43:b9:26:fb:f8:d0:b7:ee:d4:73:e0:6d:91:77:00:1a:38:86:
         77:2e:bd:9b:79:aa:f4:7b:0f:d1:70:6a:c3:91:48:d9:ca:5b:
         95:06:44:89:7d:ae:f0:33:a8:19:34:49:c1:1b:3b:b3:79:17:
         8c:44:d0:58:83:cb:37:8c:7a:5a:2a:5a:d5:f3:9d:30:59:24:
         59:c9:73:35:85:0c:47:60:56:e0:13:0a:44:83:74:6b:c6:c0:
         a7:64:28:7c:a2:47:b2:a5:bd:31:08:73:4d:20:84:89:64:fc:
         f0:23:8b:33:41:0a:e6:8c:83:6c:8b:fd:05:f3:94:53:bd:2d:
         ef:08:7d:b4:15:2f:87:21:ee:d4:63:06:5d:8d:a9:3d:f0:79:
         b1:8c:f4:f9:25:9a:1f:16:01:38:60:c8:ed:56:50:93:52:3a:
         bb:0a:73:8b:c3:a0:ad:1b:05:7c:c9:04:f9:85:0c:fb:c5:be:
         04:d0:84:74:c6:8e:f8:72:55:2f:16:f8:30:0b:7e:a1:72:05:
         b8:b4:c6:d9:b9:3c:b3:e8:26:4a:95:c0:96:49:da:83:bb:d5:
         6c:3d:bf:f8:91:3f:93:1c:d2:d5:42:30:bb:29:2b:58:e5:ad:
         c5:2d:ea:42:c5:e5:42:1d:47:69:82:82:2e:d2:f9:65:f4:6b:
         1a:cf:90:de
-----BEGIN CERTIFICATE-----
MIIEIjCCAwqgAwIBAgIEEAAA2zANBgkqhkiG9w0BAQsFADBEMQswCQYDVQQGEwJE
RTEPMA0GA1UECAwGSGVzc2VuMRQwEgYDVQQKDAtwcml2YWN5aWRlYTEOMAwGA1UE
AwwFQ0EwMDEwHhcNMTkwMTIyMjAwOTM1WhcNMjAwMTIyMjAwOTM1WjBQMQ8wDQYD
VQQLDAZyZWFsbTExEjAQBgNVBAMMCWNvcm5lbGl1czEpMCcGCSqGSIb3DQEJARYa
dXNlckBsb2NhbGhvc3QubG9jYWxkb21haW4wggEiMA0GCSqGSIb3DQEBAQUAA4IB
DwAwggEKAoIBAQDEjR1Bcw4EYyTnhQ/T4HYoxnv4qGUn/XTKOZ68WZE/r0XQQHuZ
BvjsiU46/wSe47vUgAqfkHXvKNtLPBXX27qwj5gFeODBAFBXo56w9/ws2OshtzGW
5pljl9mAFVGkTa8W/yxaKHNYinP+TfFke15bXstBmRQ548TstBl+h3eeW/0zhrUZ
NliV+tMgw0o5hg0KxSZ+HiFZc3nA6a7kTmPFl578LpvxFpFmHU3iy4Kd6MwYFMo0
ZaLfapK3NLvY/JEHY8CRW/WCtZ0TbVMckPdAj2XnNV2dXuMBSu/Wbu85qQgUIOds
e3jou3ZzK4aBBZ/Evl925hco77Hxp1NXFsbLAgMBAAGjggEOMIIBCjALBgNVHQ8E
BAMCBaAwCQYDVR0TBAIwADARBglghkgBhvhCAQEEBAMCBkAwMwYJYIZIAYb4QgEN
BCYWJE9wZW5TU0wgR2VuZXJhdGVkIFNlcnZlciBDZXJ0aWZpY2F0ZTAdBgNVHQ4E
FgQUyX7yv09x670KPc5ugCbfI3/btt8wdAYDVR0jBG0wa4AU9KfAzJFGr2TzkfIn
+Miyb4qHMnOhSKRGMEQxCzAJBgNVBAYTAkRFMQ8wDQYDVQQIDAZIZXNzZW4xFDAS
BgNVBAoMC3ByaXZhY3lpZGVhMQ4wDAYDVQQDDAVDQTAwMYIJAPvI66yDzRIHMBMG
A1UdJQQMMAoGCCsGAQUFBwMBMA0GCSqGSIb3DQEBCwUAA4IBAQBDuSb7+NC37tRz
4G2RdwAaOIZ3Lr2bear0ew/RcGrDkUjZyluVBkSJfa7wM6gZNEnBGzuzeReMRNBY
g8s3jHpaKlrV850wWSRZyXM1hQxHYFbgEwpEg3RrxsCnZCh8okeypb0xCHNNIISJ
ZPzwI4szQQrmjINsi/0F85RTvS3vCH20FS+HIe7UYwZdjak98HmxjPT5JZofFgE4
YMjtVlCTUjq7CnOLw6CtGwV8yQT5hQz7xb4E0IR0xo74clUvFvgwC36hcgW4tMbZ
uTyz6CZKlcCWSdqDu9VsPb/4kT+THNLVQjC7KStY5a3FLepCxeVCHUdpgoIu0vll
9Gsaz5De
-----END CERTIFICATE-----
