Certificate:
    Data:
        Version: 3 (0x2)
        Serial Number: 268435671 (0x100000d7)
    Signature Algorithm: sha256WithRSAEncryption
        Issuer: C=DE, ST=Hessen, O=privacyidea, CN=CA001
        Validity
            Not Before: Jan 22 20:51:15 2019 GMT
            Not After : Jan 22 20:51:15 2020 GMT
        Subject: CN=selfservice,CN=user,O=realm1/emailAddress=meine
        Subject Public Key Info:
            Public Key Algorithm: rsaEncryption
                Public-Key: (2048 bit)
                Modulus:
                    00:cf:3c:d4:33:0e:12:c4:e6:da:cd:b6:56:a1:1c:
                    26:bb:26:1c:8a:4a:73:a8:58:8a:b6:1e:b3:8b:99:
                    d2:1d:07:c2:92:89:79:c0:69:d8:c8:df:28:61:98:
                    1e:b3:fe:ae:2b:bd:78:a9:f7:6e:47:dc:a3:a0:16:
                    8c:85:02:c1:4e:92:fd:72:6e:f0:c8:03:29:9b:b8:
                    00:6e:c0:83:95:c8:34:20:36:9c:b3:e5:e4:e6:76:
                    73:a3:1a:ad:40:96:e0:53:54:00:ec:76:79:9a:c6:
                    0d:7e:b6:bd:29:ec:83:f3:cb:89:a4:cb:6c:00:ba:
                    0c:c5:78:0f:ff:69:b8:94:f4:04:70:43:3f:d8:9e:
                    d7:a7:fb:5d:ce:75:8e:da:e7:c4:07:b1:9d:de:6f:
                    88:4b:b6:4d:9a:cf:f9:bc:fa:9f:cd:32:6d:f6:3a:
                    0b:0d:23:42:78:ec:97:42:bf:0e:4d:60:56:e1:d3:
                    02:f2:19:cb:84:57:90:e5:70:a1:a2:83:35:86:e2:
                    da:86:9f:f9:8a:c4:79:b3:52:28:da:cb:bb:34:ca:
                    d3:da:91:4a:cf:8d:76:a2:b2:6b:9b:f9:96:fd:09:
                    2a:da:11:23:4d:f0:cb:d6:b2:b1:0e:12:6c:9a:19:
                    65:98:87:ca:e4:ee:24:ce:44:ac:90:8f:9d:1b:c5:
                    2a:9d
                Exponent: 65537 (0x10001)
        X509v3 extensions:
            X509v3 Key Usage: 
                Digital Signature, Key Encipherment
            X509v3 Basic Constraints: 
                CA:FALSE
            Netscape Cert Type: 
                SSL Server
            Netscape Comment: 
                OpenSSL Generated Server Certificate
            X509v3 Subject Key Identifier: 
                4D:07:90:AD:FF:1D:0D:E7:1A:DD:D6:2E:FA:BA:34:CB:AA:1F:24:C6
            X509v3 Authority Key Identifier: 
                keyid:F4:A7:C0:CC:91:46:AF:64:F3:91:F2:27:F8:C8:B2:6F:8A:87:32:73
                DirName:/C=DE/ST=Hessen/O=privacyidea/CN=CA001
                serial:FB:C8:EB:AC:83:CD:12:07

            X509v3 Extended Key Usage: 
                TLS Web Server Authentication
    Signature Algorithm: sha256WithRSAEncryption
         91:26:56:1e:2d:a6:9b:41:cd:32:0f:1f:08:4b:bb:0e:37:6b:
         c2:2f:e3:a2:99:1d:43:16:8e:44:b6:ab:6d:6f:aa:3d:c9:c5:
         e4:0c:a0:bb:8f:35:66:cb:09:71:31:c0:8d:5d:cf:59:47:7e:
         30:c9:10:00:5d:87:62:79:84:c5:4c:63:a1:67:24:0f:8e:98:
         c2:01:5a:2e:5d:c0:8f:73:7d:d0:27:f8:27:4d:a6:ad:7b:6e:
         64:e0:2f:99:bb:62:0b:89:62:d1:3b:65:04:54:53:19:a4:e8:
         5b:bb:90:66:87:20:d8:d5:77:94:dd:ae:47:43:ec:52:dc:31:
         38:9e:98:cb:ef:e8:52:14:dc:db:5b:28:9d:0c:36:67:62:78:
         a5:39:ef:28:aa:b7:81:91:fe:3e:87:7a:9a:64:c1:b3:bf:74:
         ba:90:47:58:50:17:49:c9:4e:5f:1f:6f:d8:8b:fc:56:a4:42:
         08:0e:b2:46:2b:b8:09:c0:8d:19:6a:f1:91:60:6c:1d:e8:02:
         ad:5a:25:94:71:cb:7a:37:b2:ef:1f:8a:22:68:35:99:fa:e8:
         46:bf:4b:2f:74:e3:b7:50:32:e9:f6:c0:80:83:90:8e:01:bf:
         fd:44:d8:bc:cf:77:01:69:24:14:98:18:fd:3f:09:ea:bd:5f:
         7a:1f:18:52
-----BEGIN CERTIFICATE-----
MIIEDzCCAvegAwIBAgIEEAAA1zANBgkqhkiG9w0BAQsFADBEMQswCQYDVQQGEwJE
RTEPMA0GA1UECAwGSGVzc2VuMRQwEgYDVQQKDAtwcml2YWN5aWRlYTEOMAwGA1UE
AwwFQ0EwMDEwHhcNMTkwMTIyMjA1MTE1WhcNMjAwMTIyMjA1MTE1WjA9MSUwIwYD
VQQDDBxzZWxmc2VydmljZSxDTj11c2VyLE89cmVhbG0xMRQwEgYJKoZIhvcNAQkB
FgVtZWluZTCCASIwDQYJKoZIhvcNAQEBBQADggEPADCCAQoCggEBAM881DMOEsTm
2s22VqEcJrsmHIpKc6hYirYes4uZ0h0HwpKJecBp2MjfKGGYHrP+riu9eKn3bkfc
o6AWjIUCwU6S/XJu8MgDKZu4AG7Ag5XINCA2nLPl5OZ2c6MarUCW4FNUAOx2eZrG
DX62vSnsg/PLiaTLbAC6DMV4D/9puJT0BHBDP9ie16f7Xc51jtrnxAexnd5viEu2
TZrP+bz6n80ybfY6Cw0jQnjsl0K/Dk1gVuHTAvIZy4RXkOVwoaKDNYbi2oaf+YrE
ebNSKNrLuzTK09qRSs+NdqKya5v5lv0JKtoRI03wy9aysQ4SbJoZZZiHyuTuJM5E
rJCPnRvFKp0CAwEAAaOCAQ4wggEKMAsGA1UdDwQEAwIFoDAJBgNVHRMEAjAAMBEG
CWCGSAGG+EIBAQQEAwIGQDAzBglghkgBhvhCAQ0EJhYkT3BlblNTTCBHZW5lcmF0
ZWQgU2VydmVyIENlcnRpZmljYXRlMB0GA1UdDgQWBBRNB5Ct/x0N5xrd1i76ujTL
qh8kxjB0BgNVHSMEbTBrgBT0p8DMkUavZPOR8if4yLJviocyc6FIpEYwRDELMAkG
A1UEBhMCREUxDzANBgNVBAgMBkhlc3NlbjEUMBIGA1UECgwLcHJpdmFjeWlkZWEx
DjAMBgNVBAMMBUNBMDAxggkA+8jrrIPNEgcwEwYDVR0lBAwwCgYIKwYBBQUHAwEw
DQYJKoZIhvcNAQELBQADggEBAJEmVh4tpptBzTIPHwhLuw43a8Iv46KZHUMWjkS2
q21vqj3JxeQMoLuPNWbLCXExwI1dz1lHfjDJEABdh2J5hMVMY6FnJA+OmMIBWi5d
wI9zfdAn+CdNpq17bmTgL5m7YguJYtE7ZQRUUxmk6Fu7kGaHINjVd5TdrkdD7FLc
MTiemMvv6FIU3NtbKJ0MNmdieKU57yiqt4GR/j6HeppkwbO/dLqQR1hQF0nJTl8f
b9iL/FakQggOskYruAnAjRlq8ZFgbB3oAq1aJZRxy3o3su8fiiJoNZn66Ea/Sy90
47dQMun2wICDkI4Bv/1E2LzPdwFpJBSYGP0/Ceq9X3ofGFI=
-----END CERTIFICATE-----
