Certificate:
    Data:
        Version: 3 (0x2)
        Serial Number: 268435674 (0x100000da)
    Signature Algorithm: sha256WithRSAEncryption
        Issuer: C=DE, ST=Hessen, O=privacyidea, CN=CA001
        Validity
            Not Before: Jan 22 20:09:33 2019 GMT
            Not After : Jan 22 20:09:33 2020 GMT
        Subject: C=DE, ST=Hessen, O=privacyidea, CN=requester.localdomain
        Subject Public Key Info:
            Public Key Algorithm: rsaEncryption
                Public-Key: (2048 bit)
                Modulus:
                    00:cd:be:14:4f:fa:ce:01:3f:42:22:1b:1d:9c:af:
                    dd:92:d2:7f:db:6c:b7:3e:39:43:43:6b:13:03:f1:
                    05:f4:07:74:bc:76:69:28:0b:af:19:8e:d7:fc:e3:
                    cd:c6:58:f2:ca:7f:08:6d:53:fc:07:02:44:24:c6:
                    b4:34:4c:8c:04:fe:33:0e:40:e2:20:ba:02:73:5a:
                    f7:f5:4f:63:6e:cc:c6:b6:df:54:1d:37:39:7d:51:
                    36:26:5f:bd:dc:3f:a8:8b:6b:a2:ae:b6:9d:d6:21:
                    e7:df:41:b8:7a:28:2a:68:48:ca:a8:2d:ed:e1:e9:
                    46:5e:5a:72:6d:b4:84:38:87:91:fd:94:11:0b:28:
                    84:c6:c2:2f:2a:fb:01:f9:36:7a:09:75:d1:33:88:
                    3c:73:41:5b:c8:bf:94:89:70:a1:f0:c0:b9:2e:50:
                    53:1e:b1:17:64:69:f4:2d:81:e0:a9:0d:0e:32:e9:
                    ba:55:8a:85:f1:1b:6f:49:79:b4:7f:88:c3:0d:3e:
                    54:88:9b:3d:1f:38:8c:04:f3:ee:6a:63:2b:f5:c6:
                    db:b4:83:aa:c4:78:41:3a:7d:4b:e1:c8:3e:71:ca:
                    1b:61:59:ea:c6:c4:ca:32:5e:c9:e9:bf:12:29:e6:
                    c6:c3:63:fe:a0:55:da:7a:f1:60:98:4d:26:ed:fa:
                    70:2d
                Exponent: 65537 (0x10001)
        X509v3 extensions:
            X509v3 Key Usage: 
                Digital Signature, Key Encipherment
            X509v3 Basic Constraints: 
                CA:FALSE
            Netscape Cert Type: 
                SSL Server
            Netscape Comment: 
                OpenSSL Generated Server Certificate
            X509v3 Subject Key Identifier: 
                53:3F:ED:5D:09:07:B3:65:7B:AB:45:C9:24:5B:09:77:80:0A:96:ED
            X509v3 Authority Key Identifier: 
                keyid:F4:A7:C0:CC:91:46:AF:64:F3:91:F2:27:F8:C8:B2:6F:8A:87:32:73
                DirName:/C=DE/ST=Hessen/O=privacyidea/CN=CA001
                serial:FB:C8:EB:AC:83:CD:12:07

            X509v3 Extended Key Usage: 
                TLS Web Server Authentication
    Signature Algorithm: sha256WithRSAEncryption
         a0:bf:a5:16:3b:19:43:8a:28:30:75:b1:8e:12:56:17:63:a9:
         06:fa:f3:4f:cd:db:20:3d:b2:13:cf:43:32:fe:01:af:62:74:
         fa:dc:5b:21:e0:48:4c:70:2f:43:bc:5c:79:66:0c:99:4f:e5:
         b9:a3:3c:4b:e9:d3:2d:86:36:7a:cb:f2:e5:83:86:9d:14:61:
         4d:9f:44:26:d0:f3:48:62:e2:21:b8:22:5e:99:a8:11:2d:eb:
         05:87:47:65:73:bc:15:04:89:82:bb:15:68:a4:dc:f6:e0:89:
         8d:40:c7:e2:9c:f7:1b:39:a8:cc:b7:26:a6:3e:63:0d:f8:51:
         f0:24:f4:69:7c:d2:4d:3a:1f:a6:46:7a:ca:37:92:e0:e6:c2:
         1f:31:38:5c:1e:f3:b8:cd:9d:4e:99:90:9f:24:56:45:25:68:
         20:86:6f:00:e0:bd:f9:57:63:b7:5f:52:3d:43:3a:b3:df:02:
         94:ae:dc:ab:98:a8:06:5f:46:e3:a1:8c:57:bc:e4:d2:3e:cd:
         f0:95:03:10:ef:02:db:38:8c:5d:df:7b:88:96:b6:e0:e9:99:
         1a:55:1d:18:8b:81:c1:0a:8f:13:98:1c:f8:ea:08:1a:7f:82:
         e1:56:a9:27:9a:f9:07:00:90:6f:e0:3e:50:bf:60:d0:58:bb:
         10:c4:46:23
-----BEGIN CERTIFICATE-----
MIIEJjCCAw6gAwIBAgIEEAAA2jANBgkqhkiG9w0BAQsFADBEMQswCQYDVQQGEwJE
RTEPMA0GA1UECAwGSGVzc2VuMRQwEgYDVQQKDAtwcml2YWN5aWRlYTEOMAwGA1UE
AwwFQ0EwMDEwHhcNMTkwMTIyMjAwOTMzWhcNMjAwMTIyMjAwOTMzWjBUMQswCQYD
VQQGEwJERTEPMA0GA1UECAwGSGVzc2VuMRQwEgYDVQQKDAtwcml2YWN5aWRlYTEe
MBwGA1UEAwwVcmVxdWVzdGVyLmxvY2FsZG9tYWluMIIBIjANBgkqhkiG9w0BAQEF
AAOCAQ8AMIIBCgKCAQEAzb4UT/rOAT9CIhsdnK/dktJ/22y3PjlDQ2sTA/EF9Ad0
vHZpKAuvGY7X/OPNxljyyn8IbVP8BwJEJMa0NEyMBP4zDkDiILoCc1r39U9jbszG
tt9UHTc5fVE2Jl+93D+oi2uirrad1iHn30G4eigqaEjKqC3t4elGXlpybbSEOIeR
/ZQRCyiExsIvKvsB+TZ6CXXRM4g8c0FbyL+UiXCh8MC5LlBTHrEXZGn0LYHgqQ0O
Mum6VYqF8RtvSXm0f4jDDT5UiJs9HziMBPPuamMr9cbbtIOqxHhBOn1L4cg+ccob
YVnqxsTKMl7J6b8SKebGw2P+oFXaevFgmE0m7fpwLQIDAQABo4IBDjCCAQowCwYD
VR0PBAQDAgWgMAkGA1UdEwQCMAAwEQYJYIZIAYb4QgEBBAQDAgZAMDMGCWCGSAGG
+EIBDQQmFiRPcGVuU1NMIEdlbmVyYXRlZCBTZXJ2ZXIgQ2VydGlmaWNhdGUwHQYD
VR0OBBYEFFM/7V0JB7Nle6tFySRbCXeACpbtMHQGA1UdIwRtMGuAFPSnwMyRRq9k
85HyJ/jIsm+KhzJzoUikRjBEMQswCQYDVQQGEwJERTEPMA0GA1UECAwGSGVzc2Vu
MRQwEgYDVQQKDAtwcml2YWN5aWRlYTEOMAwGA1UEAwwFQ0EwMDGCCQD7yOusg80S
BzATBgNVHSUEDDAKBggrBgEFBQcDATANBgkqhkiG9w0BAQsFAAOCAQEAoL+lFjsZ
Q4ooMHWxjhJWF2OpBvrzT83bID2yE89DMv4Br2J0+txbIeBITHAvQ7xceWYMmU/l
uaM8S+nTLYY2esvy5YOGnRRhTZ9EJtDzSGLiIbgiXpmoES3rBYdHZXO8FQSJgrsV
aKTc9uCJjUDH4pz3GzmozLcmpj5jDfhR8CT0aXzSTTofpkZ6yjeS4ObCHzE4XB7z
uM2dTpmQnyRWRSVoIIZvAOC9+Vdjt19SPUM6s98ClK7cq5ioBl9G46GMV7zk0j7N
8JUDEO8C2ziMXd97iJa24OmZGlUdGIuBwQqPE5gc+OoIGn+C4VapJ5r5BwCQb+A+
UL9g0Fi7EMRGIw==
-----END CERTIFICATE-----
