Certificate:
    Data:
        Version: 3 (0x2)
        Serial Number: 268435686 (0x100000e6)
    Signature Algorithm: sha256WithRSAEncryption
        Issuer: C=DE, ST=Hessen, O=privacyidea, CN=CA001
        Validity
            Not Before: Jan  9 19:43:13 2019 GMT
            Not After : Jan  9 19:43:13 2020 GMT
        Subject: C=DE, ST=Hessen, O=privacyidea, CN=requester.localdomain
        Subject Public Key Info:
            Public Key Algorithm: rsaEncryption
                Public-Key: (2048 bit)
                Modulus:
                    00:cd:be:14:4f:fa:ce:01:3f:42:22:1b:1d:9c:af:
                    dd:92:d2:7f:db:6c:b7:3e:39:43:43:6b:13:03:f1:
                    05:f4:07:74:bc:76:69:28:0b:af:19:8e:d7:fc:e3:
                    cd:c6:58:f2:ca:7f:08:6d:53:fc:07:02:44:24:c6:
                    b4:34:4c:8c:04:fe:33:0e:40:e2:20:ba:02:73:5a:
                    f7:f5:4f:63:6e:cc:c6:b6:df:54:1d:37:39:7d:51:
                    36:26:5f:bd:dc:3f:a8:8b:6b:a2:ae:b6:9d:d6:21:
                    e7:df:41:b8:7a:28:2a:68:48:ca:a8:2d:ed:e1:e9:
                    46:5e:5a:72:6d:b4:84:38:87:91:fd:94:11:0b:28:
                    84:c6:c2:2f:2a:fb:01:f9:36:7a:09:75:d1:33:88:
                    3c:73:41:5b:c8:bf:94:89:70:a1:f0:c0:b9:2e:50:
                    53:1e:b1:17:64:69:f4:2d:81:e0:a9:0d:0e:32:e9:
                    ba:55:8a:85:f1:1b:6f:49:79:b4:7f:88:c3:0d:3e:
                    54:88:9b:3d:1f:38:8c:04:f3:ee:6a:63:2b:f5:c6:
                    db:b4:83:aa:c4:78:41:3a:7d:4b:e1:c8:3e:71:ca:
                    1b:61:59:ea:c6:c4:ca:32:5e:c9:e9:bf:12:29:e6:
                    c6:c3:63:fe:a0:55:da:7a:f1:60:98:4d:26:ed:fa:
                    70:2d
                Exponent: 65537 (0x10001)
        X509v3 extensions:
            X509v3 Key Usage: 
                Digital Signature, Key Encipherment
            X509v3 Basic Constraints: 
                CA:FALSE
            Netscape Cert Type: 
                SSL Server
            Netscape Comment: 
                OpenSSL Generated Server Certificate
            X509v3 Subject Key Identifier: 
                53:3F:ED:5D:09:07:B3:65:7B:AB:45:C9:24:5B:09:77:80:0A:96:ED
            X509v3 Authority Key Identifier: 
                keyid:F4:A7:C0:CC:91:46:AF:64:F3:91:F2:27:F8:C8:B2:6F:8A:87:32:73
                DirName:/C=DE/ST=Hessen/O=privacyidea/CN=CA001
                serial:FB:C8:EB:AC:83:CD:12:07

            X509v3 Extended Key Usage: 
                TLS Web Server Authentication
    Signature Algorithm: sha256WithRSAEncryption
         78:0c:f0:8e:64:67:e9:9c:e4:d1:68:dd:f0:1a:d9:28:de:91:
         86:99:19:f6:35:4d:4d:bf:d0:a7:45:6a:ec:9e:40:f7:a9:ab:
         f2:b6:18:99:e9:10:cb:14:33:22:e4:f6:85:9f:b8:bb:20:f1:
         a4:05:6c:07:0a:3b:c1:66:7b:b7:da:ca:74:91:86:6a:81:0f:
         16:1a:cf:69:e5:ed:f7:ec:64:c7:89:cf:05:17:c8:5f:2a:0f:
         e6:14:3f:7e:6d:56:7e:4a:27:86:83:0b:a0:37:c4:20:e3:ed:
         b2:53:3d:59:25:53:b4:e8:4b:eb:f7:d8:af:93:a0:cb:8a:f0:
         88:58:96:57:63:51:a7:28:b7:1c:5d:59:97:dd:7c:af:79:09:
         c5:f8:12:c0:31:02:46:65:58:14:0a:46:34:31:b9:8f:98:c2:
         05:cf:fd:02:c2:fd:d1:b4:a0:f7:e4:53:07:d8:b4:ac:d7:80:
         85:3b:01:3e:61:eb:07:6d:73:1a:92:52:6f:23:e2:c2:4e:de:
         09:b2:cf:50:7d:05:85:d1:7a:9b:69:2c:d8:58:c3:b4:47:54:
         74:38:d5:2c:83:da:cf:bf:54:b1:06:d0:b0:fb:d2:f3:c9:38:
         53:25:19:bd:ab:2b:73:37:39:1f:8d:b5:fa:3f:fa:cd:f4:33:
         f2:4e:09:2c
-----BEGIN CERTIFICATE-----
MIIEJjCCAw6gAwIBAgIEEAAA5jANBgkqhkiG9w0BAQsFADBEMQswCQYDVQQGEwJE
RTEPMA0GA1UECAwGSGVzc2VuMRQwEgYDVQQKDAtwcml2YWN5aWRlYTEOMAwGA1UE
AwwFQ0EwMDEwHhcNMTkwMTA5MTk0MzEzWhcNMjAwMTA5MTk0MzEzWjBUMQswCQYD
VQQGEwJERTEPMA0GA1UECAwGSGVzc2VuMRQwEgYDVQQKDAtwcml2YWN5aWRlYTEe
MBwGA1UEAwwVcmVxdWVzdGVyLmxvY2FsZG9tYWluMIIBIjANBgkqhkiG9w0BAQEF
AAOCAQ8AMIIBCgKCAQEAzb4UT/rOAT9CIhsdnK/dktJ/22y3PjlDQ2sTA/EF9Ad0
vHZpKAuvGY7X/OPNxljyyn8IbVP8BwJEJMa0NEyMBP4zDkDiILoCc1r39U9jbszG
tt9UHTc5fVE2Jl+93D+oi2uirrad1iHn30G4eigqaEjKqC3t4elGXlpybbSEOIeR
/ZQRCyiExsIvKvsB+TZ6CXXRM4g8c0FbyL+UiXCh8MC5LlBTHrEXZGn0LYHgqQ0O
Mum6VYqF8RtvSXm0f4jDDT5UiJs9HziMBPPuamMr9cbbtIOqxHhBOn1L4cg+ccob
YVnqxsTKMl7J6b8SKebGw2P+oFXaevFgmE0m7fpwLQIDAQABo4IBDjCCAQowCwYD
VR0PBAQDAgWgMAkGA1UdEwQCMAAwEQYJYIZIAYb4QgEBBAQDAgZAMDMGCWCGSAGG
+EIBDQQmFiRPcGVuU1NMIEdlbmVyYXRlZCBTZXJ2ZXIgQ2VydGlmaWNhdGUwHQYD
VR0OBBYEFFM/7V0JB7Nle6tFySRbCXeACpbtMHQGA1UdIwRtMGuAFPSnwMyRRq9k
85HyJ/jIsm+KhzJzoUikRjBEMQswCQYDVQQGEwJERTEPMA0GA1UECAwGSGVzc2Vu
MRQwEgYDVQQKDAtwcml2YWN5aWRlYTEOMAwGA1UEAwwFQ0EwMDGCCQD7yOusg80S
BzATBgNVHSUEDDAKBggrBgEFBQcDATANBgkqhkiG9w0BAQsFAAOCAQEAeAzwjmRn
6Zzk0Wjd8BrZKN6RhpkZ9jVNTb/Qp0Vq7J5A96mr8rYYmekQyxQzIuT2hZ+4uyDx
pAVsBwo7wWZ7t9rKdJGGaoEPFhrPaeXt9+xkx4nPBRfIXyoP5hQ/fm1WfkonhoML
oDfEIOPtslM9WSVTtOhL6/fYr5Ogy4rwiFiWV2NRpyi3HF1Zl918r3kJxfgSwDEC
RmVYFApGNDG5j5jCBc/9AsL90bSg9+RTB9i0rNeAhTsBPmHrB21zGpJSbyPiwk7e
CbLPUH0FhdF6m2ks2FjDtEdUdDjVLIPaz79UsQbQsPvS88k4UyUZvasrczc5H421
+j/6zfQz8k4JLA==
-----END CERTIFICATE-----
