Certificate:
    Data:
        Version: 3 (0x2)
        Serial Number: 268435672 (0x100000d8)
    Signature Algorithm: sha256WithRSAEncryption
        Issuer: C=DE, ST=Hessen, O=privacyidea, CN=CA001
        Validity
            Not Before: Jan 22 20:05:02 2019 GMT
            Not After : Jan 22 20:05:02 2020 GMT
        Subject: CN=Steve Test/emailAddress=steve@openssl.org
        Subject Public Key Info:
            Public Key Algorithm: rsaEncryption
                Public-Key: (2048 bit)
                Modulus:
                    00:d2:81:89:20:51:48:0f:73:f4:11:32:24:d5:1f:
                    1c:fd:5c:f5:b6:e6:c5:f0:52:81:dc:d2:af:66:4a:
                    7c:93:31:61:5c:af:d1:6d:06:70:03:60:7c:72:0c:
                    88:dd:49:cd:9e:02:6c:d2:5a:d7:53:0f:f3:da:be:
                    69:64:b5:0f:0c:00:e3:b3:50:47:a3:b3:9b:ba:13:
                    50:d6:58:5a:4b:ab:39:e0:11:ca:0a:27:67:03:78:
                    22:66:6d:92:1e:1b:5c:49:ae:e6:6b:d1:8e:3b:9d:
                    06:d3:c6:ac:4d:53:43:10:ab:e8:96:c1:87:82:97:
                    99:8f:20:d3:99:12:37:31:84:e1:8a:ff:29:03:5f:
                    22:90:3e:7f:9b:e0:20:c1:ad:dc:ae:4c:39:1a:31:
                    96:17:02:8c:b2:d9:b4:0d:20:12:9b:7d:86:54:fd:
                    33:fd:c1:2a:62:46:f8:60:96:cf:6e:01:6f:22:df:
                    13:47:e7:97:ec:05:72:23:a3:62:f8:fa:ef:ac:9c:
                    72:f0:37:cb:2f:37:cf:90:a8:27:51:86:c6:d7:78:
                    08:8f:7e:25:a2:15:70:a2:fb:1c:b6:15:5e:a0:97:
                    8b:81:4c:09:28:8a:27:3b:94:bc:71:db:5b:71:37:
                    9a:2b:16:e0:6f:b5:c9:f5:4b:4f:20:ba:65:cf:af:
                    ad:ad
                Exponent: 65537 (0x10001)
        X509v3 extensions:
            X509v3 Key Usage: 
                Digital Signature, Key Encipherment
            X509v3 Basic Constraints: 
                CA:FALSE
            Netscape Cert Type: 
                SSL Server
            Netscape Comment: 
                OpenSSL Generated Server Certificate
            X509v3 Subject Key Identifier: 
                E5:25:6D:3E:AF:0D:DD:3F:4C:F2:45:19:39:D5:14:DB:7E:9C:C0:AD
            X509v3 Authority Key Identifier: 
                keyid:F4:A7:C0:CC:91:46:AF:64:F3:91:F2:27:F8:C8:B2:6F:8A:87:32:73
                DirName:/C=DE/ST=Hessen/O=privacyidea/CN=CA001
                serial:FB:C8:EB:AC:83:CD:12:07

            X509v3 Extended Key Usage: 
                TLS Web Server Authentication
    Signature Algorithm: sha256WithRSAEncryption
         76:49:ae:45:0e:d8:4f:52:3c:1a:fb:fa:86:a7:01:44:39:91:
         30:2c:d1:f5:20:9c:62:b7:e3:2c:78:94:df:a3:e1:0d:90:3e:
         fb:28:e3:83:f7:b8:ed:38:25:a8:b2:d0:78:c8:95:f0:38:8a:
         72:6a:1c:dd:17:8e:5d:ca:bd:52:5c:a5:21:2b:dd:d6:4a:c3:
         12:2c:d0:97:66:8f:91:f5:e4:be:4b:1d:cf:fd:53:a2:a4:eb:
         97:a6:d5:1d:2b:5b:38:f0:cc:3c:c9:61:62:b5:d4:3f:f6:1b:
         ba:14:c6:8d:6f:87:23:77:e3:02:79:f4:e3:70:ae:0a:48:f7:
         d5:8f:02:e4:39:a9:2f:1f:f8:bc:90:04:b6:ba:c5:2b:8f:95:
         10:8e:f2:75:4b:1f:39:a4:f4:9a:41:ef:ff:71:ca:a5:59:d9:
         03:61:c0:bc:95:9b:45:b0:ed:f6:ef:7b:6f:40:64:67:d6:8c:
         80:11:a8:0e:dd:ec:32:46:12:c7:b2:cd:93:f6:91:b9:15:82:
         ea:e7:1a:71:c0:8a:7e:e3:54:b4:eb:24:90:91:e0:97:40:90:
         81:30:38:3c:0f:a6:1a:77:71:5c:28:69:89:a5:53:87:7b:4a:
         64:74:c7:fb:4b:90:ce:2a:8a:dd:9e:e1:42:17:f8:66:90:14:
         49:5c:6b:61
-----BEGIN CERTIFICATE-----
MIIECTCCAvGgAwIBAgIEEAAA2DANBgkqhkiG9w0BAQsFADBEMQswCQYDVQQGEwJE
RTEPMA0GA1UECAwGSGVzc2VuMRQwEgYDVQQKDAtwcml2YWN5aWRlYTEOMAwGA1UE
AwwFQ0EwMDEwHhcNMTkwMTIyMjAwNTAyWhcNMjAwMTIyMjAwNTAyWjA3MRMwEQYD
VQQDDApTdGV2ZSBUZXN0MSAwHgYJKoZIhvcNAQkBFhFzdGV2ZUBvcGVuc3NsLm9y
ZzCCASIwDQYJKoZIhvcNAQEBBQADggEPADCCAQoCggEBANKBiSBRSA9z9BEyJNUf
HP1c9bbmxfBSgdzSr2ZKfJMxYVyv0W0GcANgfHIMiN1JzZ4CbNJa11MP89q+aWS1
DwwA47NQR6Ozm7oTUNZYWkurOeARygonZwN4ImZtkh4bXEmu5mvRjjudBtPGrE1T
QxCr6JbBh4KXmY8g05kSNzGE4Yr/KQNfIpA+f5vgIMGt3K5MORoxlhcCjLLZtA0g
Ept9hlT9M/3BKmJG+GCWz24BbyLfE0fnl+wFciOjYvj676yccvA3yy83z5CoJ1GG
xtd4CI9+JaIVcKL7HLYVXqCXi4FMCSiKJzuUvHHbW3E3misW4G+1yfVLTyC6Zc+v
ra0CAwEAAaOCAQ4wggEKMAsGA1UdDwQEAwIFoDAJBgNVHRMEAjAAMBEGCWCGSAGG
+EIBAQQEAwIGQDAzBglghkgBhvhCAQ0EJhYkT3BlblNTTCBHZW5lcmF0ZWQgU2Vy
dmVyIENlcnRpZmljYXRlMB0GA1UdDgQWBBTlJW0+rw3dP0zyRRk51RTbfpzArTB0
BgNVHSMEbTBrgBT0p8DMkUavZPOR8if4yLJviocyc6FIpEYwRDELMAkGA1UEBhMC
REUxDzANBgNVBAgMBkhlc3NlbjEUMBIGA1UECgwLcHJpdmFjeWlkZWExDjAMBgNV
BAMMBUNBMDAxggkA+8jrrIPNEgcwEwYDVR0lBAwwCgYIKwYBBQUHAwEwDQYJKoZI
hvcNAQELBQADggEBAHZJrkUO2E9SPBr7+oanAUQ5kTAs0fUgnGK34yx4lN+j4Q2Q
Pvso44P3uO04Jaiy0HjIlfA4inJqHN0Xjl3KvVJcpSEr3dZKwxIs0Jdmj5H15L5L
Hc/9U6Kk65em1R0rWzjwzDzJYWK11D/2G7oUxo1vhyN34wJ59ONwrgpI99WPAuQ5
qS8f+LyQBLa6xSuPlRCO8nVLHzmk9JpB7/9xyqVZ2QNhwLyVm0Ww7fbve29AZGfW
jIARqA7d7DJGEseyzZP2kbkVgurnGnHAin7jVLTrJJCR4JdAkIEwODwPphp3cVwo
aYmlU4d7SmR0x/tLkM4qit2e4UIX+GaQFElca2E=
-----END CERTIFICATE-----
