Certificate:
    Data:
        Version: 3 (0x2)
        Serial Number: 268435668 (0x100000d4)
    Signature Algorithm: sha256WithRSAEncryption
        Issuer: C=DE, ST=Hessen, O=privacyidea, CN=CA001
        Validity
            Not Before: Jan 22 20:37:39 2019 GMT
            Not After : Feb 10 20:37:39 2021 GMT
        Subject: CN=Steve Test/emailAddress=steve@openssl.org
        Subject Public Key Info:
            Public Key Algorithm: rsaEncryption
                Public-Key: (2048 bit)
                Modulus:
                    00:d2:81:89:20:51:48:0f:73:f4:11:32:24:d5:1f:
                    1c:fd:5c:f5:b6:e6:c5:f0:52:81:dc:d2:af:66:4a:
                    7c:93:31:61:5c:af:d1:6d:06:70:03:60:7c:72:0c:
                    88:dd:49:cd:9e:02:6c:d2:5a:d7:53:0f:f3:da:be:
                    69:64:b5:0f:0c:00:e3:b3:50:47:a3:b3:9b:ba:13:
                    50:d6:58:5a:4b:ab:39:e0:11:ca:0a:27:67:03:78:
                    22:66:6d:92:1e:1b:5c:49:ae:e6:6b:d1:8e:3b:9d:
                    06:d3:c6:ac:4d:53:43:10:ab:e8:96:c1:87:82:97:
                    99:8f:20:d3:99:12:37:31:84:e1:8a:ff:29:03:5f:
                    22:90:3e:7f:9b:e0:20:c1:ad:dc:ae:4c:39:1a:31:
                    96:17:02:8c:b2:d9:b4:0d:20:12:9b:7d:86:54:fd:
                    33:fd:c1:2a:62:46:f8:60:96:cf:6e:01:6f:22:df:
                    13:47:e7:97:ec:05:72:23:a3:62:f8:fa:ef:ac:9c:
                    72:f0:37:cb:2f:37:cf:90:a8:27:51:86:c6:d7:78:
                    08:8f:7e:25:a2:15:70:a2:fb:1c:b6:15:5e:a0:97:
                    8b:81:4c:09:28:8a:27:3b:94:bc:71:db:5b:71:37:
                    9a:2b:16:e0:6f:b5:c9:f5:4b:4f:20:ba:65:cf:af:
                    ad:ad
                Exponent: 65537 (0x10001)
        X509v3 extensions:
            X509v3 Key Usage: 
                Digital Signature, Key Encipherment
            X509v3 Basic Constraints: 
                CA:FALSE
            Netscape Cert Type: 
                SSL Server
            Netscape Comment: 
                OpenSSL Generated Server Certificate
            X509v3 Subject Key Identifier: 
                E5:25:6D:3E:AF:0D:DD:3F:4C:F2:45:19:39:D5:14:DB:7E:9C:C0:AD
            X509v3 Authority Key Identifier: 
                keyid:F4:A7:C0:CC:91:46:AF:64:F3:91:F2:27:F8:C8:B2:6F:8A:87:32:73
                DirName:/C=DE/ST=Hessen/O=privacyidea/CN=CA001
                serial:FB:C8:EB:AC:83:CD:12:07

            X509v3 Extended Key Usage: 
                TLS Web Server Authentication
    Signature Algorithm: sha256WithRSAEncryption
         c0:4f:b5:04:09:e0:67:ed:19:45:69:02:71:68:24:3f:8b:d7:
         5c:32:0d:6e:b2:93:c2:bc:5d:84:09:e5:ce:70:6b:d2:fb:c4:
         08:7d:2e:f3:29:fb:93:6d:cf:1a:b1:1f:0e:f6:00:9a:92:bf:
         c3:df:12:14:9e:44:1f:37:c4:32:63:3e:6b:23:a2:07:f4:76:
         74:32:6e:e8:8e:00:0c:70:a1:a9:50:11:fd:3d:7d:75:a8:b0:
         53:44:97:f9:1d:57:17:2e:ce:5b:dc:47:0c:db:54:e4:bd:01:
         4b:31:83:b8:b0:1f:d8:8d:04:22:54:2b:16:63:ef:9e:29:69:
         f4:a5:1e:9a:65:8a:d0:f0:2d:3b:99:a8:27:7b:43:de:35:e2:
         07:38:cf:33:35:c8:c7:17:e5:93:3f:d0:06:67:e7:e3:4e:22:
         fc:5e:b5:ec:1c:7d:5d:44:6c:f3:36:ff:11:42:23:24:62:3d:
         66:3a:2a:c9:90:21:5b:6c:56:7e:d4:99:5a:9f:73:91:67:6b:
         90:99:f3:ab:3d:11:81:9e:58:df:89:94:d1:d2:e5:e3:5b:ea:
         38:e7:62:00:cb:9e:f3:51:11:8a:93:bc:78:84:38:3f:f8:d4:
         32:72:2e:b0:6b:68:9b:ea:3e:d3:f6:b1:7e:ae:7a:52:0f:42:
         5e:bd:7c:aa
-----BEGIN CERTIFICATE-----
MIIECTCCAvGgAwIBAgIEEAAA1DANBgkqhkiG9w0BAQsFADBEMQswCQYDVQQGEwJE
RTEPMA0GA1UECAwGSGVzc2VuMRQwEgYDVQQKDAtwcml2YWN5aWRlYTEOMAwGA1UE
AwwFQ0EwMDEwHhcNMTkwMTIyMjAzNzM5WhcNMjEwMjEwMjAzNzM5WjA3MRMwEQYD
VQQDDApTdGV2ZSBUZXN0MSAwHgYJKoZIhvcNAQkBFhFzdGV2ZUBvcGVuc3NsLm9y
ZzCCASIwDQYJKoZIhvcNAQEBBQADggEPADCCAQoCggEBANKBiSBRSA9z9BEyJNUf
HP1c9bbmxfBSgdzSr2ZKfJMxYVyv0W0GcANgfHIMiN1JzZ4CbNJa11MP89q+aWS1
DwwA47NQR6Ozm7oTUNZYWkurOeARygonZwN4ImZtkh4bXEmu5mvRjjudBtPGrE1T
QxCr6JbBh4KXmY8g05kSNzGE4Yr/KQNfIpA+f5vgIMGt3K5MORoxlhcCjLLZtA0g
Ept9hlT9M/3BKmJG+GCWz24BbyLfE0fnl+wFciOjYvj676yccvA3yy83z5CoJ1GG
xtd4CI9+JaIVcKL7HLYVXqCXi4FMCSiKJzuUvHHbW3E3misW4G+1yfVLTyC6Zc+v
ra0CAwEAAaOCAQ4wggEKMAsGA1UdDwQEAwIFoDAJBgNVHRMEAjAAMBEGCWCGSAGG
+EIBAQQEAwIGQDAzBglghkgBhvhCAQ0EJhYkT3BlblNTTCBHZW5lcmF0ZWQgU2Vy
dmVyIENlcnRpZmljYXRlMB0GA1UdDgQWBBTlJW0+rw3dP0zyRRk51RTbfpzArTB0
BgNVHSMEbTBrgBT0p8DMkUavZPOR8if4yLJviocyc6FIpEYwRDELMAkGA1UEBhMC
REUxDzANBgNVBAgMBkhlc3NlbjEUMBIGA1UECgwLcHJpdmFjeWlkZWExDjAMBgNV
BAMMBUNBMDAxggkA+8jrrIPNEgcwEwYDVR0lBAwwCgYIKwYBBQUHAwEwDQYJKoZI
hvcNAQELBQADggEBAMBPtQQJ4GftGUVpAnFoJD+L11wyDW6yk8K8XYQJ5c5wa9L7
xAh9LvMp+5NtzxqxHw72AJqSv8PfEhSeRB83xDJjPmsjogf0dnQybuiOAAxwoalQ
Ef09fXWosFNEl/kdVxcuzlvcRwzbVOS9AUsxg7iwH9iNBCJUKxZj754pafSlHppl
itDwLTuZqCd7Q9414gc4zzM1yMcX5ZM/0AZn5+NOIvxetewcfV1EbPM2/xFCIyRi
PWY6KsmQIVtsVn7UmVqfc5Fna5CZ86s9EYGeWN+JlNHS5eNb6jjnYgDLnvNREYqT
vHiEOD/41DJyLrBraJvqPtP2sX6uelIPQl69fKo=
-----END CERTIFICATE-----
