Certificate:
    Data:
        Version: 3 (0x2)
        Serial Number: 268435688 (0x100000e8)
    Signature Algorithm: sha256WithRSAEncryption
        Issuer: C=DE, ST=Hessen, O=privacyidea, CN=CA001
        Validity
            Not Before: Jan  9 19:45:42 2019 GMT
            Not After : Jan  9 19:45:42 2020 GMT
        Subject: C=DE, ST=Hessen, O=privacyidea, CN=usercert
        Subject Public Key Info:
            Public Key Algorithm: rsaEncryption
                Public-Key: (2048 bit)
                Modulus:
                    00:dc:2f:d1:5f:29:97:d4:7c:c3:53:c8:30:bd:4b:
                    67:70:2c:24:6b:b8:5e:eb:21:7a:48:12:56:7c:81:
                    5c:48:75:b6:68:eb:f6:f2:98:4e:50:51:d1:7f:6c:
                    73:f3:0a:a7:ae:be:48:5e:e5:d6:e1:d9:2a:7c:32:
                    6e:4e:fd:08:f6:5a:54:49:23:73:c3:b9:07:18:d1:
                    ef:b3:ac:f8:8a:dc:94:96:a4:90:3a:8e:74:df:e6:
                    0d:37:1b:bd:5b:b7:25:1a:56:39:da:6f:91:aa:5e:
                    1c:74:f3:f9:7c:14:01:83:12:65:76:c7:bb:fe:36:
                    5b:95:e9:72:65:83:ed:3e:98:30:71:fa:87:dd:a3:
                    36:5a:30:03:2e:26:e0:61:d1:bf:02:3f:b6:06:1f:
                    4a:89:28:1c:5c:a2:ff:4e:be:94:e6:8c:e0:da:82:
                    f1:9d:29:32:48:30:73:b4:04:f6:42:1e:be:f7:e2:
                    32:32:27:3c:9d:89:2f:70:3e:85:9a:6f:5c:c5:09:
                    c0:8c:32:2f:72:22:c9:d2:95:1f:b6:ac:72:60:72:
                    b7:82:4d:6b:ce:5b:e3:00:d0:d2:2f:58:c6:e0:10:
                    e5:51:ca:4d:3b:2e:e6:7e:ab:84:d6:56:f1:93:35:
                    a0:93:64:26:81:75:2f:91:b5:16:06:38:0b:db:cc:
                    2d:07
                Exponent: 65537 (0x10001)
        X509v3 extensions:
            X509v3 Key Usage: 
                Digital Signature, Key Encipherment
            X509v3 Basic Constraints: 
                CA:FALSE
            Netscape Cert Type: 
                SSL Server
            Netscape Comment: 
                OpenSSL Generated Server Certificate
            X509v3 Subject Key Identifier: 
                FC:14:D1:F0:4B:8D:00:90:F2:F5:B8:71:9E:4E:97:C3:92:54:AD:0B
            X509v3 Authority Key Identifier: 
                keyid:F4:A7:C0:CC:91:46:AF:64:F3:91:F2:27:F8:C8:B2:6F:8A:87:32:73
                DirName:/C=DE/ST=Hessen/O=privacyidea/CN=CA001
                serial:FB:C8:EB:AC:83:CD:12:07

            X509v3 Extended Key Usage: 
                TLS Web Server Authentication
    Signature Algorithm: sha256WithRSAEncryption
         50:1c:7c:e3:ee:aa:cf:24:9c:d6:77:78:80:14:64:91:53:b5:
         57:1e:b7:10:a9:be:fa:dd:e7:6d:3c:96:54:ae:6c:dd:94:b1:
         20:b0:b2:4c:81:30:64:ae:0b:38:d5:72:9f:ea:45:b5:0b:2a:
         16:3d:17:e6:27:13:97:b7:ce:85:5c:bd:89:2a:21:38:8c:e0:
         41:82:e4:d7:7c:f2:d7:2e:8a:b2:52:ee:2e:a1:73:a1:b8:9f:
         cb:6e:92:d1:5e:04:72:38:96:74:b9:97:fc:5e:cf:3e:1e:82:
         c5:48:3e:05:bc:42:f8:28:0c:61:c8:ab:3b:6d:8d:b5:8e:74:
         5d:22:3f:f0:ae:6e:ec:7b:3a:ff:64:95:bd:4e:28:57:6d:6e:
         a0:d7:0c:0f:a1:87:4c:45:aa:32:c6:10:04:17:d2:f6:53:cc:
         f6:65:16:7e:e6:9a:c4:db:3f:23:e1:7b:a4:e5:78:d5:f3:56:
         4d:93:83:40:98:85:85:5d:97:0b:89:63:44:46:bd:50:73:3d:
         87:14:b7:cf:86:a3:a3:46:44:3d:ff:1f:df:0e:b0:70:5a:fa:
         2b:c6:69:eb:87:83:d8:22:d3:0e:02:90:1a:6b:9a:c9:1d:26:
         47:93:0c:4f:60:02:54:95:9f:31:96:32:ff:34:c0:3d:cf:b0:
         79:c7:e4:1c
-----BEGIN CERTIFICATE-----
MIIEGTCCAwGgAwIBAgIEEAAA6DANBgkqhkiG9w0BAQsFADBEMQswCQYDVQQGEwJE
RTEPMA0GA1UECAwGSGVzc2VuMRQwEgYDVQQKDAtwcml2YWN5aWRlYTEOMAwGA1UE
AwwFQ0EwMDEwHhcNMTkwMTA5MTk0NTQyWhcNMjAwMTA5MTk0NTQyWjBHMQswCQYD
VQQGEwJERTEPMA0GA1UECAwGSGVzc2VuMRQwEgYDVQQKDAtwcml2YWN5aWRlYTER
MA8GA1UEAwwIdXNlcmNlcnQwggEiMA0GCSqGSIb3DQEBAQUAA4IBDwAwggEKAoIB
AQDcL9FfKZfUfMNTyDC9S2dwLCRruF7rIXpIElZ8gVxIdbZo6/bymE5QUdF/bHPz
Cqeuvkhe5dbh2Sp8Mm5O/Qj2WlRJI3PDuQcY0e+zrPiK3JSWpJA6jnTf5g03G71b
tyUaVjnab5GqXhx08/l8FAGDEmV2x7v+NluV6XJlg+0+mDBx+ofdozZaMAMuJuBh
0b8CP7YGH0qJKBxcov9OvpTmjODagvGdKTJIMHO0BPZCHr734jIyJzydiS9wPoWa
b1zFCcCMMi9yIsnSlR+2rHJgcreCTWvOW+MA0NIvWMbgEOVRyk07LuZ+q4TWVvGT
NaCTZCaBdS+RtRYGOAvbzC0HAgMBAAGjggEOMIIBCjALBgNVHQ8EBAMCBaAwCQYD
VR0TBAIwADARBglghkgBhvhCAQEEBAMCBkAwMwYJYIZIAYb4QgENBCYWJE9wZW5T
U0wgR2VuZXJhdGVkIFNlcnZlciBDZXJ0aWZpY2F0ZTAdBgNVHQ4EFgQU/BTR8EuN
AJDy9bhxnk6Xw5JUrQswdAYDVR0jBG0wa4AU9KfAzJFGr2TzkfIn+Miyb4qHMnOh
SKRGMEQxCzAJBgNVBAYTAkRFMQ8wDQYDVQQIDAZIZXNzZW4xFDASBgNVBAoMC3By
aXZhY3lpZGVhMQ4wDAYDVQQDDAVDQTAwMYIJAPvI66yDzRIHMBMGA1UdJQQMMAoG
CCsGAQUFBwMBMA0GCSqGSIb3DQEBCwUAA4IBAQBQHHzj7qrPJJzWd3iAFGSRU7VX
HrcQqb763edtPJZUrmzdlLEgsLJMgTBkrgs41XKf6kW1CyoWPRfmJxOXt86FXL2J
KiE4jOBBguTXfPLXLoqyUu4uoXOhuJ/LbpLRXgRyOJZ0uZf8Xs8+HoLFSD4FvEL4
KAxhyKs7bY21jnRdIj/wrm7sezr/ZJW9TihXbW6g1wwPoYdMRaoyxhAEF9L2U8z2
ZRZ+5prE2z8j4Xuk5XjV81ZNk4NAmIWFXZcLiWNERr1Qcz2HFLfPhqOjRkQ9/x/f
DrBwWvorxmnrh4PYItMOApAaa5rJHSZHkwxPYAJUlZ8xljL/NMA9z7B5x+Qc
-----END CERTIFICATE-----
