Certificate:
    Data:
        Version: 3 (0x2)
        Serial Number: 268435673 (0x100000d9)
    Signature Algorithm: sha256WithRSAEncryption
        Issuer: C=DE, ST=Hessen, O=privacyidea, CN=CA001
        Validity
            Not Before: Jan 22 20:05:02 2019 GMT
            Not After : Feb 10 20:05:02 2021 GMT
        Subject: CN=Steve Test/emailAddress=steve@openssl.org
        Subject Public Key Info:
            Public Key Algorithm: rsaEncryption
                Public-Key: (2048 bit)
                Modulus:
                    00:d2:81:89:20:51:48:0f:73:f4:11:32:24:d5:1f:
                    1c:fd:5c:f5:b6:e6:c5:f0:52:81:dc:d2:af:66:4a:
                    7c:93:31:61:5c:af:d1:6d:06:70:03:60:7c:72:0c:
                    88:dd:49:cd:9e:02:6c:d2:5a:d7:53:0f:f3:da:be:
                    69:64:b5:0f:0c:00:e3:b3:50:47:a3:b3:9b:ba:13:
                    50:d6:58:5a:4b:ab:39:e0:11:ca:0a:27:67:03:78:
                    22:66:6d:92:1e:1b:5c:49:ae:e6:6b:d1:8e:3b:9d:
                    06:d3:c6:ac:4d:53:43:10:ab:e8:96:c1:87:82:97:
                    99:8f:20:d3:99:12:37:31:84:e1:8a:ff:29:03:5f:
                    22:90:3e:7f:9b:e0:20:c1:ad:dc:ae:4c:39:1a:31:
                    96:17:02:8c:b2:d9:b4:0d:20:12:9b:7d:86:54:fd:
                    33:fd:c1:2a:62:46:f8:60:96:cf:6e:01:6f:22:df:
                    13:47:e7:97:ec:05:72:23:a3:62:f8:fa:ef:ac:9c:
                    72:f0:37:cb:2f:37:cf:90:a8:27:51:86:c6:d7:78:
                    08:8f:7e:25:a2:15:70:a2:fb:1c:b6:15:5e:a0:97:
                    8b:81:4c:09:28:8a:27:3b:94:bc:71:db:5b:71:37:
                    9a:2b:16:e0:6f:b5:c9:f5:4b:4f:20:ba:65:cf:af:
                    ad:ad
                Exponent: 65537 (0x10001)
        X509v3 extensions:
            X509v3 Key Usage: 
                Digital Signature, Key Encipherment
            X509v3 Basic Constraints: 
                CA:FALSE
            Netscape Cert Type: 
                SSL Server
            Netscape Comment: 
                OpenSSL Generated Server Certificate
            X509v3 Subject Key Identifier: 
                E5:25:6D:3E:AF:0D:DD:3F:4C:F2:45:19:39:D5:14:DB:7E:9C:C0:AD
            X509v3 Authority Key Identifier: 
                keyid:F4:A7:C0:CC:91:46:AF:64:F3:91:F2:27:F8:C8:B2:6F:8A:87:32:73
                DirName:/C=DE/ST=Hessen/O=privacyidea/CN=CA001
                serial:FB:C8:EB:AC:83:CD:12:07

            X509v3 Extended Key Usage: 
                TLS Web Server Authentication
    Signature Algorithm: sha256WithRSAEncryption
         b5:e9:6a:60:e1:57:d4:f4:8c:66:ac:b4:14:e8:19:b4:41:aa:
         2f:ea:00:48:3e:0d:a6:bf:7c:b1:3f:77:78:a4:61:d5:b4:4e:
         6c:0b:59:00:1c:66:14:eb:6b:66:ad:31:73:1a:82:ca:a6:83:
         48:50:bc:7d:8f:8b:a9:4e:58:09:1c:2a:3b:3b:84:66:f0:f1:
         90:6f:85:b4:7f:7f:92:40:78:f6:d3:06:9a:36:7c:d3:59:d5:
         72:34:fe:9c:3d:0d:c9:3f:2a:0c:e5:51:76:83:d8:96:d8:d4:
         2e:e1:f8:6a:e6:99:fe:a4:73:f6:63:36:cf:da:59:4e:b3:90:
         ad:ac:db:63:d6:b5:7f:d5:f6:de:e9:23:44:59:a4:8b:97:fc:
         60:44:03:d4:3b:c5:c2:8f:f7:45:17:ba:fa:0e:b3:bf:75:4c:
         c3:3f:f0:1c:9a:02:13:d5:2c:35:ca:b8:d6:6e:ae:23:66:d2:
         f8:e3:6a:80:f8:5f:35:a0:70:c9:2c:d4:86:bc:5f:ad:ba:bd:
         d8:02:06:f6:5a:ad:a3:4e:98:4c:88:4e:49:16:3c:2f:8a:fb:
         0e:79:c5:7c:a7:b9:4b:3d:28:25:aa:14:dd:ec:91:ba:93:16:
         7a:6f:57:e8:75:24:b3:cf:b4:7d:50:96:2b:0e:a7:61:86:d2:
         ed:11:84:55
-----BEGIN CERTIFICATE-----
MIIECTCCAvGgAwIBAgIEEAAA2TANBgkqhkiG9w0BAQsFADBEMQswCQYDVQQGEwJE
RTEPMA0GA1UECAwGSGVzc2VuMRQwEgYDVQQKDAtwcml2YWN5aWRlYTEOMAwGA1UE
AwwFQ0EwMDEwHhcNMTkwMTIyMjAwNTAyWhcNMjEwMjEwMjAwNTAyWjA3MRMwEQYD
VQQDDApTdGV2ZSBUZXN0MSAwHgYJKoZIhvcNAQkBFhFzdGV2ZUBvcGVuc3NsLm9y
ZzCCASIwDQYJKoZIhvcNAQEBBQADggEPADCCAQoCggEBANKBiSBRSA9z9BEyJNUf
HP1c9bbmxfBSgdzSr2ZKfJMxYVyv0W0GcANgfHIMiN1JzZ4CbNJa11MP89q+aWS1
DwwA47NQR6Ozm7oTUNZYWkurOeARygonZwN4ImZtkh4bXEmu5mvRjjudBtPGrE1T
QxCr6JbBh4KXmY8g05kSNzGE4Yr/KQNfIpA+f5vgIMGt3K5MORoxlhcCjLLZtA0g
Ept9hlT9M/3BKmJG+GCWz24BbyLfE0fnl+wFciOjYvj676yccvA3yy83z5CoJ1GG
xtd4CI9+JaIVcKL7HLYVXqCXi4FMCSiKJzuUvHHbW3E3misW4G+1yfVLTyC6Zc+v
ra0CAwEAAaOCAQ4wggEKMAsGA1UdDwQEAwIFoDAJBgNVHRMEAjAAMBEGCWCGSAGG
+EIBAQQEAwIGQDAzBglghkgBhvhCAQ0EJhYkT3BlblNTTCBHZW5lcmF0ZWQgU2Vy
dmVyIENlcnRpZmljYXRlMB0GA1UdDgQWBBTlJW0+rw3dP0zyRRk51RTbfpzArTB0
BgNVHSMEbTBrgBT0p8DMkUavZPOR8if4yLJviocyc6FIpEYwRDELMAkGA1UEBhMC
REUxDzANBgNVBAgMBkhlc3NlbjEUMBIGA1UECgwLcHJpdmFjeWlkZWExDjAMBgNV
BAMMBUNBMDAxggkA+8jrrIPNEgcwEwYDVR0lBAwwCgYIKwYBBQUHAwEwDQYJKoZI
hvcNAQELBQADggEBALXpamDhV9T0jGastBToGbRBqi/qAEg+Daa/fLE/d3ikYdW0
TmwLWQAcZhTra2atMXMagsqmg0hQvH2Pi6lOWAkcKjs7hGbw8ZBvhbR/f5JAePbT
Bpo2fNNZ1XI0/pw9Dck/KgzlUXaD2JbY1C7h+Grmmf6kc/ZjNs/aWU6zkK2s22PW
tX/V9t7pI0RZpIuX/GBEA9Q7xcKP90UXuvoOs791TMM/8ByaAhPVLDXKuNZuriNm
0vjjaoD4XzWgcMks1Ia8X626vdgCBvZaraNOmEyITkkWPC+K+w55xXynuUs9KCWq
FN3skbqTFnpvV+h1JLPPtH1QlisOp2GG0u0RhFU=
-----END CERTIFICATE-----
