Certificate:
    Data:
        Version: 3 (0x2)
        Serial Number: 268435666 (0x100000d2)
    Signature Algorithm: sha256WithRSAEncryption
        Issuer: C=DE, ST=Hessen, O=privacyidea, CN=CA001
        Validity
            Not Before: Jan 22 20:37:38 2019 GMT
            Not After : Jan 22 20:37:38 2020 GMT
        Subject: C=DE, ST=Hessen, O=privacyidea, CN=usercert
        Subject Public Key Info:
            Public Key Algorithm: rsaEncryption
                Public-Key: (2048 bit)
                Modulus:
                    00:dc:2f:d1:5f:29:97:d4:7c:c3:53:c8:30:bd:4b:
                    67:70:2c:24:6b:b8:5e:eb:21:7a:48:12:56:7c:81:
                    5c:48:75:b6:68:eb:f6:f2:98:4e:50:51:d1:7f:6c:
                    73:f3:0a:a7:ae:be:48:5e:e5:d6:e1:d9:2a:7c:32:
                    6e:4e:fd:08:f6:5a:54:49:23:73:c3:b9:07:18:d1:
                    ef:b3:ac:f8:8a:dc:94:96:a4:90:3a:8e:74:df:e6:
                    0d:37:1b:bd:5b:b7:25:1a:56:39:da:6f:91:aa:5e:
                    1c:74:f3:f9:7c:14:01:83:12:65:76:c7:bb:fe:36:
                    5b:95:e9:72:65:83:ed:3e:98:30:71:fa:87:dd:a3:
                    36:5a:30:03:2e:26:e0:61:d1:bf:02:3f:b6:06:1f:
                    4a:89:28:1c:5c:a2:ff:4e:be:94:e6:8c:e0:da:82:
                    f1:9d:29:32:48:30:73:b4:04:f6:42:1e:be:f7:e2:
                    32:32:27:3c:9d:89:2f:70:3e:85:9a:6f:5c:c5:09:
                    c0:8c:32:2f:72:22:c9:d2:95:1f:b6:ac:72:60:72:
                    b7:82:4d:6b:ce:5b:e3:00:d0:d2:2f:58:c6:e0:10:
                    e5:51:ca:4d:3b:2e:e6:7e:ab:84:d6:56:f1:93:35:
                    a0:93:64:26:81:75:2f:91:b5:16:06:38:0b:db:cc:
                    2d:07
                Exponent: 65537 (0x10001)
        X509v3 extensions:
            X509v3 Key Usage: 
                Digital Signature, Key Encipherment
            X509v3 Basic Constraints: 
                CA:FALSE
            Netscape Cert Type: 
                SSL Server
            Netscape Comment: 
                OpenSSL Generated Server Certificate
            X509v3 Subject Key Identifier: 
                FC:14:D1:F0:4B:8D:00:90:F2:F5:B8:71:9E:4E:97:C3:92:54:AD:0B
            X509v3 Authority Key Identifier: 
                keyid:F4:A7:C0:CC:91:46:AF:64:F3:91:F2:27:F8:C8:B2:6F:8A:87:32:73
                DirName:/C=DE/ST=Hessen/O=privacyidea/CN=CA001
                serial:FB:C8:EB:AC:83:CD:12:07

            X509v3 Extended Key Usage: 
                TLS Web Server Authentication
    Signature Algorithm: sha256WithRSAEncryption
         77:39:38:12:e7:a0:bd:d9:61:f6:29:bd:52:08:e1:15:f0:d0:
         d1:59:f1:a5:cc:18:49:7f:b6:08:cb:eb:f2:43:d9:68:5b:ba:
         b8:95:16:8f:4d:94:f1:0e:57:d7:01:f2:b7:e5:75:5e:96:3e:
         e9:36:8e:c2:bf:a2:9b:bf:08:79:0f:7d:f3:6e:69:4f:f9:23:
         2b:6b:e5:2d:f1:2f:39:7f:e4:67:c5:eb:64:e5:9a:8a:5a:91:
         60:8d:00:f5:6f:35:c6:e3:db:69:ab:20:8e:f9:b3:0d:f4:d0:
         9a:97:63:1f:f6:05:13:59:2a:07:0d:19:d8:af:31:db:94:be:
         1e:15:35:2c:21:9a:32:a7:cd:2b:ff:dc:9b:6f:18:b4:70:1c:
         ff:d5:cc:e5:d6:31:c0:93:b3:88:0a:db:71:e8:bc:e9:a0:4d:
         0f:b2:f5:56:23:22:d1:7b:00:3b:80:6e:b8:f1:06:b5:3f:5e:
         b2:f9:c0:44:9f:c9:51:9d:04:47:49:cb:e9:de:40:64:7c:e3:
         83:f6:af:c7:70:4c:6b:f6:1e:64:61:0e:5e:7d:2a:3b:92:86:
         4e:30:cb:9f:51:62:cf:b0:27:7b:fb:59:e9:ed:dd:ac:ca:a9:
         42:f9:09:e5:7c:76:75:94:a4:42:c9:cc:ae:6f:43:c6:aa:61:
         f3:3b:38:ec
-----BEGIN CERTIFICATE-----
MIIEGTCCAwGgAwIBAgIEEAAA0jANBgkqhkiG9w0BAQsFADBEMQswCQYDVQQGEwJE
RTEPMA0GA1UECAwGSGVzc2VuMRQwEgYDVQQKDAtwcml2YWN5aWRlYTEOMAwGA1UE
AwwFQ0EwMDEwHhcNMTkwMTIyMjAzNzM4WhcNMjAwMTIyMjAzNzM4WjBHMQswCQYD
VQQGEwJERTEPMA0GA1UECAwGSGVzc2VuMRQwEgYDVQQKDAtwcml2YWN5aWRlYTER
MA8GA1UEAwwIdXNlcmNlcnQwggEiMA0GCSqGSIb3DQEBAQUAA4IBDwAwggEKAoIB
AQDcL9FfKZfUfMNTyDC9S2dwLCRruF7rIXpIElZ8gVxIdbZo6/bymE5QUdF/bHPz
Cqeuvkhe5dbh2Sp8Mm5O/Qj2WlRJI3PDuQcY0e+zrPiK3JSWpJA6jnTf5g03G71b
tyUaVjnab5GqXhx08/l8FAGDEmV2x7v+NluV6XJlg+0+mDBx+ofdozZaMAMuJuBh
0b8CP7YGH0qJKBxcov9OvpTmjODagvGdKTJIMHO0BPZCHr734jIyJzydiS9wPoWa
b1zFCcCMMi9yIsnSlR+2rHJgcreCTWvOW+MA0NIvWMbgEOVRyk07LuZ+q4TWVvGT
NaCTZCaBdS+RtRYGOAvbzC0HAgMBAAGjggEOMIIBCjALBgNVHQ8EBAMCBaAwCQYD
VR0TBAIwADARBglghkgBhvhCAQEEBAMCBkAwMwYJYIZIAYb4QgENBCYWJE9wZW5T
U0wgR2VuZXJhdGVkIFNlcnZlciBDZXJ0aWZpY2F0ZTAdBgNVHQ4EFgQU/BTR8EuN
AJDy9bhxnk6Xw5JUrQswdAYDVR0jBG0wa4AU9KfAzJFGr2TzkfIn+Miyb4qHMnOh
SKRGMEQxCzAJBgNVBAYTAkRFMQ8wDQYDVQQIDAZIZXNzZW4xFDASBgNVBAoMC3By
aXZhY3lpZGVhMQ4wDAYDVQQDDAVDQTAwMYIJAPvI66yDzRIHMBMGA1UdJQQMMAoG
CCsGAQUFBwMBMA0GCSqGSIb3DQEBCwUAA4IBAQB3OTgS56C92WH2Kb1SCOEV8NDR
WfGlzBhJf7YIy+vyQ9loW7q4lRaPTZTxDlfXAfK35XVelj7pNo7Cv6Kbvwh5D33z
bmlP+SMra+Ut8S85f+Rnxetk5ZqKWpFgjQD1bzXG49tpqyCO+bMN9NCal2Mf9gUT
WSoHDRnYrzHblL4eFTUsIZoyp80r/9ybbxi0cBz/1czl1jHAk7OICttx6LzpoE0P
svVWIyLRewA7gG648Qa1P16y+cBEn8lRnQRHScvp3kBkfOOD9q/HcExr9h5kYQ5e
fSo7koZOMMufUWLPsCd7+1np7d2syqlC+QnlfHZ1lKRCycyub0PGqmHzOzjs
-----END CERTIFICATE-----
